	.file	"ebrew.c"
	.intel_syntax noprefix
	.text
.lcomm ebz_base,8000000,32
.lcomm ebz_used,8,8
	.def	ebz_cons;	.scl	3;	.type	32;	.endef
	.seh_proc	ebz_cons
ebz_cons:
	push	rbp
	.seh_pushreg	rbp
	mov	rbp, rsp
	.seh_setframe	rbp, 0
	sub	rsp, 32
	.seh_stackalloc	32
	.seh_endprologue
	mov	QWORD PTR 16[rbp], rcx
	mov	QWORD PTR 24[rbp], rdx
	mov	DWORD PTR -8[rbp], 1000000
	mov	eax, DWORD PTR -8[rbp]
	cdqe
	imul	rax, QWORD PTR 16[rbp]
	test	rax, rax
	js	.L2
	pxor	xmm0, xmm0
	cvtsi2sd	xmm0, rax
	jmp	.L3
.L2:
	mov	rdx, rax
	shr	rdx
	and	eax, 1
	or	rdx, rax
	pxor	xmm0, xmm0
	cvtsi2sd	xmm0, rdx
	addsd	xmm0, xmm0
.L3:
	movsd	xmm1, QWORD PTR .LC0[rip]
	mulsd	xmm0, xmm1
	cvttsd2si	eax, xmm0
	mov	edx, eax
	mov	rax, QWORD PTR 24[rbp]
	xor	eax, edx
	mov	DWORD PTR -12[rbp], eax
	mov	eax, DWORD PTR -12[rbp]
	cdq
	idiv	DWORD PTR -8[rbp]
	mov	DWORD PTR -4[rbp], edx
.L8:
	mov	eax, DWORD PTR -4[rbp]
	cdqe
	lea	rdx, 0[0+rax*8]
	lea	rax, ebz_base[rip]
	add	rax, rdx
	mov	QWORD PTR -24[rbp], rax
	mov	rax, QWORD PTR -24[rbp]
	movzx	eax, BYTE PTR 7[rax]
	and	eax, -128
	test	al, al
	jne	.L4
	mov	rax, QWORD PTR 16[rbp]
	mov	edx, eax
	mov	rax, QWORD PTR -24[rbp]
	mov	DWORD PTR [rax], edx
	mov	rax, QWORD PTR 24[rbp]
	and	eax, 2147483647
	mov	rdx, QWORD PTR -24[rbp]
	and	eax, 2147483647
	mov	ecx, eax
	mov	eax, DWORD PTR 4[rdx]
	and	eax, -2147483648
	or	eax, ecx
	mov	DWORD PTR 4[rdx], eax
	mov	rax, QWORD PTR -24[rbp]
	movzx	edx, BYTE PTR 7[rax]
	or	edx, -128
	mov	BYTE PTR 7[rax], dl
	mov	rax, QWORD PTR ebz_used[rip]
	add	rax, 1
	mov	QWORD PTR ebz_used[rip], rax
	jmp	.L5
.L4:
	mov	rax, QWORD PTR -24[rbp]
	mov	eax, DWORD PTR [rax]
	mov	eax, eax
	cmp	QWORD PTR 16[rbp], rax
	jne	.L6
	mov	rax, QWORD PTR -24[rbp]
	mov	eax, DWORD PTR 4[rax]
	and	eax, 2147483647
	mov	eax, eax
	cmp	QWORD PTR 24[rbp], rax
	je	.L10
.L6:
	add	DWORD PTR -4[rbp], 1
	mov	eax, DWORD PTR -4[rbp]
	cmp	eax, DWORD PTR -8[rbp]
	jne	.L8
	mov	DWORD PTR -4[rbp], 0
	jmp	.L8
.L10:
	nop
.L5:
	mov	eax, DWORD PTR -4[rbp]
	cdqe
	add	rsp, 32
	pop	rbp
	ret
	.seh_endproc
	.def	eb_putchar;	.scl	3;	.type	32;	.endef
	.seh_proc	eb_putchar
eb_putchar:
	push	rbp
	.seh_pushreg	rbp
	mov	rbp, rsp
	.seh_setframe	rbp, 0
	sub	rsp, 32
	.seh_stackalloc	32
	.seh_endprologue
	mov	QWORD PTR 16[rbp], rcx
	mov	QWORD PTR 24[rbp], rdx
	mov	rax, QWORD PTR 24[rbp]
	mov	ecx, eax
	call	putchar
	mov	eax, 0
	add	rsp, 32
	pop	rbp
	ret
	.seh_endproc
	.def	eb_cons;	.scl	3;	.type	32;	.endef
	.seh_proc	eb_cons
eb_cons:
	push	rbp
	.seh_pushreg	rbp
	mov	rbp, rsp
	.seh_setframe	rbp, 0
	sub	rsp, 32
	.seh_stackalloc	32
	.seh_endprologue
	mov	QWORD PTR 16[rbp], rcx
	mov	QWORD PTR 24[rbp], rdx
	mov	QWORD PTR 32[rbp], r8
	mov	rdx, QWORD PTR 32[rbp]
	mov	rax, QWORD PTR 24[rbp]
	mov	rcx, rax
	call	ebz_cons
	add	rsp, 32
	pop	rbp
	ret
	.seh_endproc
	.def	eb_car;	.scl	3;	.type	32;	.endef
	.seh_proc	eb_car
eb_car:
	push	rbp
	.seh_pushreg	rbp
	mov	rbp, rsp
	.seh_setframe	rbp, 0
	.seh_endprologue
	mov	QWORD PTR 16[rbp], rcx
	mov	QWORD PTR 24[rbp], rdx
	mov	rax, QWORD PTR 24[rbp]
	lea	rdx, 0[0+rax*8]
	lea	rax, ebz_base[rip]
	mov	eax, DWORD PTR [rdx+rax]
	mov	eax, eax
	pop	rbp
	ret
	.seh_endproc
	.def	eb_cdr;	.scl	3;	.type	32;	.endef
	.seh_proc	eb_cdr
eb_cdr:
	push	rbp
	.seh_pushreg	rbp
	mov	rbp, rsp
	.seh_setframe	rbp, 0
	.seh_endprologue
	mov	QWORD PTR 16[rbp], rcx
	mov	QWORD PTR 24[rbp], rdx
	mov	rax, QWORD PTR 24[rbp]
	lea	rdx, 0[0+rax*8]
	lea	rax, ebz_base[rip]
	mov	eax, DWORD PTR 4[rdx+rax]
	and	eax, 2147483647
	mov	eax, eax
	pop	rbp
	ret
	.seh_endproc
	.def	eb_if;	.scl	3;	.type	32;	.endef
	.seh_proc	eb_if
eb_if:
	push	rbp
	.seh_pushreg	rbp
	mov	rbp, rsp
	.seh_setframe	rbp, 0
	sub	rsp, 32
	.seh_stackalloc	32
	.seh_endprologue
	mov	QWORD PTR 16[rbp], rcx
	mov	QWORD PTR 24[rbp], rdx
	mov	QWORD PTR 32[rbp], r8
	mov	QWORD PTR 40[rbp], r9
	cmp	QWORD PTR 24[rbp], 0
	je	.L20
	mov	rax, QWORD PTR 32[rbp]
	mov	rax, QWORD PTR [rax]
	mov	rdx, rax
	mov	rax, QWORD PTR 32[rbp]
	mov	rcx, rax
	call	rdx
	jmp	.L21
.L20:
	mov	rax, QWORD PTR 40[rbp]
	mov	rax, QWORD PTR [rax]
	mov	rdx, rax
	mov	rax, QWORD PTR 40[rbp]
	mov	rcx, rax
	call	rdx
.L21:
	add	rsp, 32
	pop	rbp
	ret
	.seh_endproc
	.def	eb_add;	.scl	3;	.type	32;	.endef
	.seh_proc	eb_add
eb_add:
	push	rbp
	.seh_pushreg	rbp
	mov	rbp, rsp
	.seh_setframe	rbp, 0
	.seh_endprologue
	mov	QWORD PTR 16[rbp], rcx
	mov	QWORD PTR 24[rbp], rdx
	mov	QWORD PTR 32[rbp], r8
	mov	rdx, QWORD PTR 32[rbp]
	mov	rax, QWORD PTR 24[rbp]
	add	rax, rdx
	pop	rbp
	ret
	.seh_endproc
	.def	eb_sub;	.scl	3;	.type	32;	.endef
	.seh_proc	eb_sub
eb_sub:
	push	rbp
	.seh_pushreg	rbp
	mov	rbp, rsp
	.seh_setframe	rbp, 0
	.seh_endprologue
	mov	QWORD PTR 16[rbp], rcx
	mov	QWORD PTR 24[rbp], rdx
	mov	QWORD PTR 32[rbp], r8
	mov	rax, QWORD PTR 32[rbp]
	sub	rax, QWORD PTR 24[rbp]
	pop	rbp
	ret
	.seh_endproc
	.def	eb_mul;	.scl	3;	.type	32;	.endef
	.seh_proc	eb_mul
eb_mul:
	push	rbp
	.seh_pushreg	rbp
	mov	rbp, rsp
	.seh_setframe	rbp, 0
	.seh_endprologue
	mov	QWORD PTR 16[rbp], rcx
	mov	QWORD PTR 24[rbp], rdx
	mov	QWORD PTR 32[rbp], r8
	mov	rax, QWORD PTR 32[rbp]
	imul	rax, QWORD PTR 24[rbp]
	pop	rbp
	ret
	.seh_endproc
	.def	eb_div;	.scl	3;	.type	32;	.endef
	.seh_proc	eb_div
eb_div:
	push	rbp
	.seh_pushreg	rbp
	mov	rbp, rsp
	.seh_setframe	rbp, 0
	.seh_endprologue
	mov	QWORD PTR 16[rbp], rcx
	mov	QWORD PTR 24[rbp], rdx
	mov	QWORD PTR 32[rbp], r8
	mov	rax, QWORD PTR 32[rbp]
	mov	edx, 0
	div	QWORD PTR 24[rbp]
	pop	rbp
	ret
	.seh_endproc
	.def	eb_mod;	.scl	3;	.type	32;	.endef
	.seh_proc	eb_mod
eb_mod:
	push	rbp
	.seh_pushreg	rbp
	mov	rbp, rsp
	.seh_setframe	rbp, 0
	.seh_endprologue
	mov	QWORD PTR 16[rbp], rcx
	mov	QWORD PTR 24[rbp], rdx
	mov	QWORD PTR 32[rbp], r8
	mov	rax, QWORD PTR 32[rbp]
	mov	edx, 0
	div	QWORD PTR 24[rbp]
	mov	rax, rdx
	pop	rbp
	ret
	.seh_endproc
	.def	eb_equal;	.scl	3;	.type	32;	.endef
	.seh_proc	eb_equal
eb_equal:
	push	rbp
	.seh_pushreg	rbp
	mov	rbp, rsp
	.seh_setframe	rbp, 0
	.seh_endprologue
	mov	QWORD PTR 16[rbp], rcx
	mov	QWORD PTR 24[rbp], rdx
	mov	QWORD PTR 32[rbp], r8
	mov	rax, QWORD PTR 32[rbp]
	cmp	rax, QWORD PTR 24[rbp]
	sete	al
	movzx	eax, al
	pop	rbp
	ret
	.seh_endproc
	.def	eb_above;	.scl	3;	.type	32;	.endef
	.seh_proc	eb_above
eb_above:
	push	rbp
	.seh_pushreg	rbp
	mov	rbp, rsp
	.seh_setframe	rbp, 0
	.seh_endprologue
	mov	QWORD PTR 16[rbp], rcx
	mov	QWORD PTR 24[rbp], rdx
	mov	QWORD PTR 32[rbp], r8
	mov	rax, QWORD PTR 32[rbp]
	cmp	QWORD PTR 24[rbp], rax
	setb	al
	movzx	eax, al
	pop	rbp
	ret
	.seh_endproc
	.def	ebz_stol;	.scl	3;	.type	32;	.endef
	.seh_proc	ebz_stol
ebz_stol:
	push	rbp
	.seh_pushreg	rbp
	mov	rbp, rsp
	.seh_setframe	rbp, 0
	sub	rsp, 48
	.seh_stackalloc	48
	.seh_endprologue
	mov	QWORD PTR 16[rbp], rcx
	mov	QWORD PTR 24[rbp], rdx
	mov	rax, QWORD PTR 16[rbp]
	mov	rax, QWORD PTR [rax]
	test	rax, rax
	jne	.L43
	mov	QWORD PTR -8[rbp], 0
	mov	QWORD PTR -16[rbp], 0
	jmp	.L39
.L40:
	add	QWORD PTR -16[rbp], 1
.L39:
	mov	rdx, QWORD PTR 24[rbp]
	mov	rax, QWORD PTR -16[rbp]
	add	rax, rdx
	movzx	eax, BYTE PTR [rax]
	test	al, al
	jne	.L40
	jmp	.L41
.L42:
	sub	QWORD PTR -16[rbp], 1
	mov	rdx, QWORD PTR 24[rbp]
	mov	rax, QWORD PTR -16[rbp]
	add	rax, rdx
	movzx	eax, BYTE PTR [rax]
	movsx	rax, al
	mov	rdx, QWORD PTR -8[rbp]
	mov	rcx, rax
	call	ebz_cons
	mov	QWORD PTR -8[rbp], rax
.L41:
	cmp	QWORD PTR -16[rbp], 0
	jne	.L42
	mov	rax, QWORD PTR 16[rbp]
	mov	rdx, QWORD PTR -8[rbp]
	mov	QWORD PTR [rax], rdx
	jmp	.L36
.L43:
	nop
.L36:
	add	rsp, 48
	pop	rbp
	ret
	.seh_endproc
	.section .rdata,"dr"
.LC1:
	.ascii "r\0"
	.text
	.def	eb_read_file;	.scl	3;	.type	32;	.endef
	.seh_proc	eb_read_file
eb_read_file:
	push	rbp
	.seh_pushreg	rbp
	sub	rsp, 1104
	.seh_stackalloc	1104
	lea	rbp, 128[rsp]
	.seh_setframe	rbp, 128
	.seh_endprologue
	mov	QWORD PTR 992[rbp], rcx
	mov	QWORD PTR 1000[rbp], rdx
	lea	rax, -80[rbp]
	mov	QWORD PTR 968[rbp], rax
	jmp	.L45
.L46:
	mov	rax, QWORD PTR 1000[rbp]
	mov	rdx, rax
	mov	ecx, 0
	call	eb_car
	mov	rcx, rax
	mov	rax, QWORD PTR 968[rbp]
	lea	rdx, 1[rax]
	mov	QWORD PTR 968[rbp], rdx
	mov	edx, ecx
	mov	BYTE PTR [rax], dl
	mov	rax, QWORD PTR 1000[rbp]
	mov	rdx, rax
	mov	ecx, 0
	call	eb_cdr
	mov	QWORD PTR 1000[rbp], rax
.L45:
	cmp	QWORD PTR 1000[rbp], 0
	jne	.L46
	mov	rax, QWORD PTR 968[rbp]
	lea	rdx, 1[rax]
	mov	QWORD PTR 968[rbp], rdx
	mov	BYTE PTR [rax], 0
	lea	rax, -80[rbp]
	lea	rdx, .LC1[rip]
	mov	rcx, rax
	call	fopen
	mov	QWORD PTR 952[rbp], rax
	cmp	QWORD PTR 952[rbp], 0
	jne	.L47
	mov	eax, 0
	jmp	.L53
.L47:
	lea	rax, i.2[rip]
	mov	QWORD PTR 960[rbp], rax
	jmp	.L49
.L52:
	mov	rax, QWORD PTR 952[rbp]
	mov	rcx, rax
	call	fgetc
	mov	BYTE PTR 951[rbp], al
	cmp	BYTE PTR 951[rbp], 0
	jle	.L54
	mov	rax, QWORD PTR 960[rbp]
	lea	rdx, 1[rax]
	mov	QWORD PTR 960[rbp], rdx
	movzx	edx, BYTE PTR 951[rbp]
	mov	BYTE PTR [rax], dl
.L49:
	mov	rax, QWORD PTR 952[rbp]
	mov	rcx, rax
	call	feof
	test	eax, eax
	je	.L52
	jmp	.L51
.L54:
	nop
.L51:
	mov	rax, QWORD PTR 960[rbp]
	lea	rdx, 1[rax]
	mov	QWORD PTR 960[rbp], rdx
	mov	BYTE PTR [rax], 0
	mov	rax, QWORD PTR 952[rbp]
	mov	rcx, rax
	call	fclose
	mov	QWORD PTR -88[rbp], 0
	lea	rax, -88[rbp]
	lea	rdx, i.2[rip]
	mov	rcx, rax
	call	ebz_stol
	mov	rax, QWORD PTR -88[rbp]
.L53:
	add	rsp, 1104
	pop	rbp
	ret
	.seh_endproc
	.globl	main
	.def	main;	.scl	2;	.type	32;	.endef
	.seh_proc	main
main:
	push	rbp
	.seh_pushreg	rbp
	mov	rbp, rsp
	.seh_setframe	rbp, 0
	sub	rsp, 64
	.seh_stackalloc	64
	.seh_endprologue
	mov	DWORD PTR 16[rbp], ecx
	mov	QWORD PTR 24[rbp], rdx
	call	__main
	mov	QWORD PTR -8[rbp], 0
	jmp	.L56
.L57:
	sub	DWORD PTR 16[rbp], 1
	mov	eax, DWORD PTR 16[rbp]
	cdqe
	lea	rdx, 0[0+rax*8]
	mov	rax, QWORD PTR 24[rbp]
	add	rax, rdx
	mov	rax, QWORD PTR [rax]
	mov	QWORD PTR -16[rbp], rax
	mov	QWORD PTR -24[rbp], 0
	mov	rdx, QWORD PTR -16[rbp]
	lea	rax, -24[rbp]
	mov	rcx, rax
	call	ebz_stol
	mov	rax, QWORD PTR -24[rbp]
	mov	rdx, QWORD PTR -8[rbp]
	mov	rcx, rax
	call	ebz_cons
	mov	QWORD PTR -8[rbp], rax
.L56:
	cmp	DWORD PTR 16[rbp], 1
	jg	.L57
	mov	rax, QWORD PTR -8[rbp]
	mov	rdx, rax
	mov	ecx, 0
	call	eb_main
	add	rsp, 64
	pop	rbp
	ret
	.seh_endproc
	.globl	eb_or1f
	.def	eb_or1f;	.scl	2;	.type	32;	.endef
	.seh_proc	eb_or1f
eb_or1f:
	push	rbp
	.seh_pushreg	rbp
	mov	rbp, rsp
	.seh_setframe	rbp, 0
	sub	rsp, 16
	.seh_stackalloc	16
	.seh_endprologue
	mov	QWORD PTR 16[rbp], rcx
	mov	rax, QWORD PTR 16[rbp]
	add	rax, 8
	mov	rax, QWORD PTR [rax]
	mov	QWORD PTR -8[rbp], rax
	mov	rax, QWORD PTR -8[rbp]
	add	rsp, 16
	pop	rbp
	ret
	.seh_endproc
	.globl	eb_or2f
	.def	eb_or2f;	.scl	2;	.type	32;	.endef
	.seh_proc	eb_or2f
eb_or2f:
	push	rbp
	.seh_pushreg	rbp
	mov	rbp, rsp
	.seh_setframe	rbp, 0
	sub	rsp, 48
	.seh_stackalloc	48
	.seh_endprologue
	mov	QWORD PTR 16[rbp], rcx
	mov	rax, QWORD PTR 16[rbp]
	add	rax, 8
	mov	rax, QWORD PTR [rax]
	mov	QWORD PTR -8[rbp], rax
	mov	rax, QWORD PTR -8[rbp]
	mov	rax, QWORD PTR [rax]
	mov	rdx, rax
	mov	rax, QWORD PTR -8[rbp]
	mov	rcx, rax
	call	rdx
	mov	QWORD PTR -16[rbp], rax
	mov	rax, QWORD PTR -16[rbp]
	add	rsp, 48
	pop	rbp
	ret
	.seh_endproc
	.globl	eb_or
	.def	eb_or;	.scl	2;	.type	32;	.endef
	.seh_proc	eb_or
eb_or:
	push	rbp
	.seh_pushreg	rbp
	mov	rbp, rsp
	.seh_setframe	rbp, 0
	sub	rsp, 80
	.seh_stackalloc	80
	.seh_endprologue
	mov	QWORD PTR 16[rbp], rcx
	mov	QWORD PTR 24[rbp], rdx
	mov	QWORD PTR 32[rbp], r8
	mov	rax, QWORD PTR 24[rbp]
	mov	QWORD PTR -8[rbp], rax
	lea	rax, eb_or1f[rip]
	mov	QWORD PTR -32[rbp], rax
	mov	rax, QWORD PTR 24[rbp]
	mov	QWORD PTR -24[rbp], rax
	lea	rax, eb_or2f[rip]
	mov	QWORD PTR -48[rbp], rax
	mov	rax, QWORD PTR 32[rbp]
	mov	QWORD PTR -40[rbp], rax
	lea	r8, -48[rbp]
	lea	rdx, -32[rbp]
	lea	rcx, eb_if[rip]
	mov	rax, QWORD PTR -8[rbp]
	mov	r9, r8
	mov	r8, rdx
	mov	rdx, rax
	call	eb_if
	mov	QWORD PTR -16[rbp], rax
	mov	rax, QWORD PTR -16[rbp]
	add	rsp, 80
	pop	rbp
	ret
	.seh_endproc
	.globl	eb_and1f
	.def	eb_and1f;	.scl	2;	.type	32;	.endef
	.seh_proc	eb_and1f
eb_and1f:
	push	rbp
	.seh_pushreg	rbp
	mov	rbp, rsp
	.seh_setframe	rbp, 0
	sub	rsp, 48
	.seh_stackalloc	48
	.seh_endprologue
	mov	QWORD PTR 16[rbp], rcx
	mov	rax, QWORD PTR 16[rbp]
	add	rax, 8
	mov	rax, QWORD PTR [rax]
	mov	QWORD PTR -8[rbp], rax
	mov	rax, QWORD PTR -8[rbp]
	mov	rax, QWORD PTR [rax]
	mov	rdx, rax
	mov	rax, QWORD PTR -8[rbp]
	mov	rcx, rax
	call	rdx
	mov	QWORD PTR -16[rbp], rax
	mov	rax, QWORD PTR -16[rbp]
	add	rsp, 48
	pop	rbp
	ret
	.seh_endproc
	.globl	eb_and2f
	.def	eb_and2f;	.scl	2;	.type	32;	.endef
	.seh_proc	eb_and2f
eb_and2f:
	push	rbp
	.seh_pushreg	rbp
	mov	rbp, rsp
	.seh_setframe	rbp, 0
	sub	rsp, 16
	.seh_stackalloc	16
	.seh_endprologue
	mov	QWORD PTR 16[rbp], rcx
	mov	QWORD PTR -8[rbp], 0
	mov	rax, QWORD PTR -8[rbp]
	add	rsp, 16
	pop	rbp
	ret
	.seh_endproc
	.globl	eb_and
	.def	eb_and;	.scl	2;	.type	32;	.endef
	.seh_proc	eb_and
eb_and:
	push	rbp
	.seh_pushreg	rbp
	mov	rbp, rsp
	.seh_setframe	rbp, 0
	sub	rsp, 80
	.seh_stackalloc	80
	.seh_endprologue
	mov	QWORD PTR 16[rbp], rcx
	mov	QWORD PTR 24[rbp], rdx
	mov	QWORD PTR 32[rbp], r8
	mov	rax, QWORD PTR 24[rbp]
	mov	QWORD PTR -8[rbp], rax
	lea	rax, eb_and1f[rip]
	mov	QWORD PTR -32[rbp], rax
	mov	rax, QWORD PTR 32[rbp]
	mov	QWORD PTR -24[rbp], rax
	lea	rax, eb_and2f[rip]
	mov	QWORD PTR -40[rbp], rax
	lea	r8, -40[rbp]
	lea	rdx, -32[rbp]
	lea	rcx, eb_if[rip]
	mov	rax, QWORD PTR -8[rbp]
	mov	r9, r8
	mov	r8, rdx
	mov	rdx, rax
	call	eb_if
	mov	QWORD PTR -16[rbp], rax
	mov	rax, QWORD PTR -16[rbp]
	add	rsp, 80
	pop	rbp
	ret
	.seh_endproc
	.globl	eb_not1f
	.def	eb_not1f;	.scl	2;	.type	32;	.endef
	.seh_proc	eb_not1f
eb_not1f:
	push	rbp
	.seh_pushreg	rbp
	mov	rbp, rsp
	.seh_setframe	rbp, 0
	sub	rsp, 16
	.seh_stackalloc	16
	.seh_endprologue
	mov	QWORD PTR 16[rbp], rcx
	mov	QWORD PTR -8[rbp], 0
	mov	rax, QWORD PTR -8[rbp]
	add	rsp, 16
	pop	rbp
	ret
	.seh_endproc
	.globl	eb_not2f
	.def	eb_not2f;	.scl	2;	.type	32;	.endef
	.seh_proc	eb_not2f
eb_not2f:
	push	rbp
	.seh_pushreg	rbp
	mov	rbp, rsp
	.seh_setframe	rbp, 0
	sub	rsp, 16
	.seh_stackalloc	16
	.seh_endprologue
	mov	QWORD PTR 16[rbp], rcx
	mov	QWORD PTR -8[rbp], 1
	mov	rax, QWORD PTR -8[rbp]
	add	rsp, 16
	pop	rbp
	ret
	.seh_endproc
	.globl	eb_not
	.def	eb_not;	.scl	2;	.type	32;	.endef
	.seh_proc	eb_not
eb_not:
	push	rbp
	.seh_pushreg	rbp
	mov	rbp, rsp
	.seh_setframe	rbp, 0
	sub	rsp, 64
	.seh_stackalloc	64
	.seh_endprologue
	mov	QWORD PTR 16[rbp], rcx
	mov	QWORD PTR 24[rbp], rdx
	mov	rax, QWORD PTR 24[rbp]
	mov	QWORD PTR -8[rbp], rax
	lea	rax, eb_not1f[rip]
	mov	QWORD PTR -24[rbp], rax
	lea	rax, eb_not2f[rip]
	mov	QWORD PTR -32[rbp], rax
	lea	r8, -32[rbp]
	lea	rdx, -24[rbp]
	lea	rcx, eb_if[rip]
	mov	rax, QWORD PTR -8[rbp]
	mov	r9, r8
	mov	r8, rdx
	mov	rdx, rax
	call	eb_if
	mov	QWORD PTR -16[rbp], rax
	mov	rax, QWORD PTR -16[rbp]
	add	rsp, 64
	pop	rbp
	ret
	.seh_endproc
	.globl	eb_do
	.def	eb_do;	.scl	2;	.type	32;	.endef
	.seh_proc	eb_do
eb_do:
	push	rbp
	.seh_pushreg	rbp
	mov	rbp, rsp
	.seh_setframe	rbp, 0
	sub	rsp, 16
	.seh_stackalloc	16
	.seh_endprologue
	mov	QWORD PTR 16[rbp], rcx
	mov	QWORD PTR 24[rbp], rdx
	mov	QWORD PTR 32[rbp], r8
	mov	rax, QWORD PTR 32[rbp]
	mov	QWORD PTR -8[rbp], rax
	mov	rax, QWORD PTR -8[rbp]
	add	rsp, 16
	pop	rbp
	ret
	.seh_endproc
	.globl	eb_let
	.def	eb_let;	.scl	2;	.type	32;	.endef
	.seh_proc	eb_let
eb_let:
	push	rbp
	.seh_pushreg	rbp
	mov	rbp, rsp
	.seh_setframe	rbp, 0
	sub	rsp, 64
	.seh_stackalloc	64
	.seh_endprologue
	mov	QWORD PTR 16[rbp], rcx
	mov	QWORD PTR 24[rbp], rdx
	mov	QWORD PTR 32[rbp], r8
	mov	rax, QWORD PTR 32[rbp]
	mov	QWORD PTR -8[rbp], rax
	mov	rax, QWORD PTR 24[rbp]
	mov	QWORD PTR -16[rbp], rax
	mov	rax, QWORD PTR -8[rbp]
	mov	rax, QWORD PTR [rax]
	mov	r8, rax
	mov	rdx, QWORD PTR -16[rbp]
	mov	rax, QWORD PTR -8[rbp]
	mov	rcx, rax
	call	r8
	mov	QWORD PTR -24[rbp], rax
	mov	rax, QWORD PTR -24[rbp]
	add	rsp, 64
	pop	rbp
	ret
	.seh_endproc
	.globl	eb_for1f11f
	.def	eb_for1f11f;	.scl	2;	.type	32;	.endef
	.seh_proc	eb_for1f11f
eb_for1f11f:
	push	rbp
	.seh_pushreg	rbp
	mov	rbp, rsp
	.seh_setframe	rbp, 0
	sub	rsp, 64
	.seh_stackalloc	64
	.seh_endprologue
	mov	QWORD PTR 16[rbp], rcx
	mov	QWORD PTR 24[rbp], rdx
	mov	rax, QWORD PTR 16[rbp]
	add	rax, 8
	mov	rax, QWORD PTR [rax]
	mov	QWORD PTR -8[rbp], rax
	mov	rax, QWORD PTR 24[rbp]
	mov	QWORD PTR -16[rbp], rax
	mov	rax, QWORD PTR -8[rbp]
	mov	rax, QWORD PTR [rax]
	mov	r8, rax
	mov	rdx, QWORD PTR -16[rbp]
	mov	rax, QWORD PTR -8[rbp]
	mov	rcx, rax
	call	r8
	mov	QWORD PTR -24[rbp], rax
	mov	rax, QWORD PTR -24[rbp]
	add	rsp, 64
	pop	rbp
	ret
	.seh_endproc
	.globl	eb_for1f
	.def	eb_for1f;	.scl	2;	.type	32;	.endef
	.seh_proc	eb_for1f
eb_for1f:
	push	rbp
	.seh_pushreg	rbp
	mov	rbp, rsp
	.seh_setframe	rbp, 0
	sub	rsp, 112
	.seh_stackalloc	112
	.seh_endprologue
	mov	QWORD PTR 16[rbp], rcx
	mov	rax, QWORD PTR 16[rbp]
	add	rax, 8
	mov	rax, QWORD PTR [rax]
	mov	QWORD PTR -8[rbp], rax
	mov	rax, QWORD PTR 16[rbp]
	add	rax, 16
	mov	rax, QWORD PTR [rax]
	mov	QWORD PTR -16[rbp], rax
	lea	rcx, eb_car[rip]
	mov	rax, QWORD PTR -16[rbp]
	mov	rdx, rax
	call	eb_car
	mov	QWORD PTR -24[rbp], rax
	mov	rax, QWORD PTR -8[rbp]
	mov	rax, QWORD PTR [rax]
	mov	r8, rax
	mov	rdx, QWORD PTR -24[rbp]
	mov	rax, QWORD PTR -8[rbp]
	mov	rcx, rax
	call	r8
	mov	QWORD PTR -32[rbp], rax
	mov	rax, QWORD PTR 16[rbp]
	add	rax, 16
	mov	rax, QWORD PTR [rax]
	mov	QWORD PTR -40[rbp], rax
	lea	rcx, eb_cdr[rip]
	mov	rax, QWORD PTR -40[rbp]
	mov	rdx, rax
	call	eb_cdr
	mov	QWORD PTR -48[rbp], rax
	lea	rax, eb_for1f11f[rip]
	mov	QWORD PTR -80[rbp], rax
	mov	rax, QWORD PTR 16[rbp]
	add	rax, 8
	mov	rax, QWORD PTR [rax]
	mov	QWORD PTR -72[rbp], rax
	lea	rdx, -80[rbp]
	lea	rcx, eb_for[rip]
	mov	rax, QWORD PTR -48[rbp]
	mov	r8, rdx
	mov	rdx, rax
	call	eb_for
	mov	QWORD PTR -56[rbp], rax
	lea	rcx, eb_do[rip]
	mov	rdx, QWORD PTR -56[rbp]
	mov	rax, QWORD PTR -32[rbp]
	mov	r8, rdx
	mov	rdx, rax
	call	eb_do
	mov	QWORD PTR -64[rbp], rax
	mov	rax, QWORD PTR -64[rbp]
	add	rsp, 112
	pop	rbp
	ret
	.seh_endproc
	.globl	eb_for
	.def	eb_for;	.scl	2;	.type	32;	.endef
	.seh_proc	eb_for
eb_for:
	push	rbp
	.seh_pushreg	rbp
	mov	rbp, rsp
	.seh_setframe	rbp, 0
	sub	rsp, 80
	.seh_stackalloc	80
	.seh_endprologue
	mov	QWORD PTR 16[rbp], rcx
	mov	QWORD PTR 24[rbp], rdx
	mov	QWORD PTR 32[rbp], r8
	mov	rax, QWORD PTR 24[rbp]
	mov	QWORD PTR -8[rbp], rax
	lea	rax, eb_for1f[rip]
	mov	QWORD PTR -48[rbp], rax
	mov	rax, QWORD PTR 32[rbp]
	mov	QWORD PTR -40[rbp], rax
	mov	rax, QWORD PTR 24[rbp]
	mov	QWORD PTR -32[rbp], rax
	lea	rdx, -48[rbp]
	lea	rcx, eb_and[rip]
	mov	rax, QWORD PTR -8[rbp]
	mov	r8, rdx
	mov	rdx, rax
	call	eb_and
	mov	QWORD PTR -16[rbp], rax
	mov	rax, QWORD PTR -16[rbp]
	add	rsp, 80
	pop	rbp
	ret
	.seh_endproc
	.globl	eb_fold1f02f
	.def	eb_fold1f02f;	.scl	2;	.type	32;	.endef
	.seh_proc	eb_fold1f02f
eb_fold1f02f:
	push	rbp
	.seh_pushreg	rbp
	mov	rbp, rsp
	.seh_setframe	rbp, 0
	sub	rsp, 64
	.seh_stackalloc	64
	.seh_endprologue
	mov	QWORD PTR 16[rbp], rcx
	mov	QWORD PTR 24[rbp], rdx
	mov	QWORD PTR 32[rbp], r8
	mov	rax, QWORD PTR 16[rbp]
	add	rax, 8
	mov	rax, QWORD PTR [rax]
	mov	QWORD PTR -8[rbp], rax
	mov	rax, QWORD PTR 24[rbp]
	mov	QWORD PTR -16[rbp], rax
	mov	rax, QWORD PTR 32[rbp]
	mov	QWORD PTR -24[rbp], rax
	mov	rax, QWORD PTR -8[rbp]
	mov	rax, QWORD PTR [rax]
	mov	r9, rax
	mov	rcx, QWORD PTR -24[rbp]
	mov	rdx, QWORD PTR -16[rbp]
	mov	rax, QWORD PTR -8[rbp]
	mov	r8, rcx
	mov	rcx, rax
	call	r9
	mov	QWORD PTR -32[rbp], rax
	mov	rax, QWORD PTR -32[rbp]
	add	rsp, 64
	pop	rbp
	ret
	.seh_endproc
	.globl	eb_fold1f
	.def	eb_fold1f;	.scl	2;	.type	32;	.endef
	.seh_proc	eb_fold1f
eb_fold1f:
	push	rbp
	.seh_pushreg	rbp
	mov	rbp, rsp
	.seh_setframe	rbp, 0
	sub	rsp, 112
	.seh_stackalloc	112
	.seh_endprologue
	mov	QWORD PTR 16[rbp], rcx
	mov	rax, QWORD PTR 16[rbp]
	add	rax, 8
	mov	rax, QWORD PTR [rax]
	mov	QWORD PTR -8[rbp], rax
	mov	rax, QWORD PTR 16[rbp]
	add	rax, 24
	mov	rax, QWORD PTR [rax]
	mov	QWORD PTR -16[rbp], rax
	mov	rax, QWORD PTR 16[rbp]
	add	rax, 16
	mov	rax, QWORD PTR [rax]
	mov	QWORD PTR -24[rbp], rax
	lea	rcx, eb_cdr[rip]
	mov	rax, QWORD PTR -24[rbp]
	mov	rdx, rax
	call	eb_cdr
	mov	QWORD PTR -32[rbp], rax
	lea	rax, eb_fold1f02f[rip]
	mov	QWORD PTR -80[rbp], rax
	mov	rax, QWORD PTR 16[rbp]
	add	rax, 8
	mov	rax, QWORD PTR [rax]
	mov	QWORD PTR -72[rbp], rax
	lea	r8, -80[rbp]
	lea	rcx, eb_fold[rip]
	mov	rdx, QWORD PTR -32[rbp]
	mov	rax, QWORD PTR -16[rbp]
	mov	r9, r8
	mov	r8, rdx
	mov	rdx, rax
	call	eb_fold
	mov	QWORD PTR -40[rbp], rax
	mov	rax, QWORD PTR 16[rbp]
	add	rax, 16
	mov	rax, QWORD PTR [rax]
	mov	QWORD PTR -48[rbp], rax
	lea	rcx, eb_car[rip]
	mov	rax, QWORD PTR -48[rbp]
	mov	rdx, rax
	call	eb_car
	mov	QWORD PTR -56[rbp], rax
	mov	rax, QWORD PTR -8[rbp]
	mov	rax, QWORD PTR [rax]
	mov	r9, rax
	mov	rcx, QWORD PTR -56[rbp]
	mov	rdx, QWORD PTR -40[rbp]
	mov	rax, QWORD PTR -8[rbp]
	mov	r8, rcx
	mov	rcx, rax
	call	r9
	mov	QWORD PTR -64[rbp], rax
	mov	rax, QWORD PTR -64[rbp]
	add	rsp, 112
	pop	rbp
	ret
	.seh_endproc
	.globl	eb_fold2f
	.def	eb_fold2f;	.scl	2;	.type	32;	.endef
	.seh_proc	eb_fold2f
eb_fold2f:
	push	rbp
	.seh_pushreg	rbp
	mov	rbp, rsp
	.seh_setframe	rbp, 0
	sub	rsp, 16
	.seh_stackalloc	16
	.seh_endprologue
	mov	QWORD PTR 16[rbp], rcx
	mov	rax, QWORD PTR 16[rbp]
	add	rax, 8
	mov	rax, QWORD PTR [rax]
	mov	QWORD PTR -8[rbp], rax
	mov	rax, QWORD PTR -8[rbp]
	add	rsp, 16
	pop	rbp
	ret
	.seh_endproc
	.globl	eb_fold
	.def	eb_fold;	.scl	2;	.type	32;	.endef
	.seh_proc	eb_fold
eb_fold:
	push	rbp
	.seh_pushreg	rbp
	mov	rbp, rsp
	.seh_setframe	rbp, 0
	sub	rsp, 96
	.seh_stackalloc	96
	.seh_endprologue
	mov	QWORD PTR 16[rbp], rcx
	mov	QWORD PTR 24[rbp], rdx
	mov	QWORD PTR 32[rbp], r8
	mov	QWORD PTR 40[rbp], r9
	mov	rax, QWORD PTR 32[rbp]
	mov	QWORD PTR -8[rbp], rax
	lea	rax, eb_fold1f[rip]
	mov	QWORD PTR -48[rbp], rax
	mov	rax, QWORD PTR 40[rbp]
	mov	QWORD PTR -40[rbp], rax
	mov	rax, QWORD PTR 32[rbp]
	mov	QWORD PTR -32[rbp], rax
	mov	rax, QWORD PTR 24[rbp]
	mov	QWORD PTR -24[rbp], rax
	lea	rax, eb_fold2f[rip]
	mov	QWORD PTR -64[rbp], rax
	mov	rax, QWORD PTR 24[rbp]
	mov	QWORD PTR -56[rbp], rax
	lea	r8, -64[rbp]
	lea	rdx, -48[rbp]
	lea	rcx, eb_if[rip]
	mov	rax, QWORD PTR -8[rbp]
	mov	r9, r8
	mov	r8, rdx
	mov	rdx, rax
	call	eb_if
	mov	QWORD PTR -16[rbp], rax
	mov	rax, QWORD PTR -16[rbp]
	add	rsp, 96
	pop	rbp
	ret
	.seh_endproc
	.globl	eb_map1f11f
	.def	eb_map1f11f;	.scl	2;	.type	32;	.endef
	.seh_proc	eb_map1f11f
eb_map1f11f:
	push	rbp
	.seh_pushreg	rbp
	mov	rbp, rsp
	.seh_setframe	rbp, 0
	sub	rsp, 64
	.seh_stackalloc	64
	.seh_endprologue
	mov	QWORD PTR 16[rbp], rcx
	mov	QWORD PTR 24[rbp], rdx
	mov	rax, QWORD PTR 16[rbp]
	add	rax, 8
	mov	rax, QWORD PTR [rax]
	mov	QWORD PTR -8[rbp], rax
	mov	rax, QWORD PTR 24[rbp]
	mov	QWORD PTR -16[rbp], rax
	mov	rax, QWORD PTR -8[rbp]
	mov	rax, QWORD PTR [rax]
	mov	r8, rax
	mov	rdx, QWORD PTR -16[rbp]
	mov	rax, QWORD PTR -8[rbp]
	mov	rcx, rax
	call	r8
	mov	QWORD PTR -24[rbp], rax
	mov	rax, QWORD PTR -24[rbp]
	add	rsp, 64
	pop	rbp
	ret
	.seh_endproc
	.globl	eb_map1f
	.def	eb_map1f;	.scl	2;	.type	32;	.endef
	.seh_proc	eb_map1f
eb_map1f:
	push	rbp
	.seh_pushreg	rbp
	mov	rbp, rsp
	.seh_setframe	rbp, 0
	sub	rsp, 112
	.seh_stackalloc	112
	.seh_endprologue
	mov	QWORD PTR 16[rbp], rcx
	mov	rax, QWORD PTR 16[rbp]
	add	rax, 8
	mov	rax, QWORD PTR [rax]
	mov	QWORD PTR -8[rbp], rax
	mov	rax, QWORD PTR 16[rbp]
	add	rax, 16
	mov	rax, QWORD PTR [rax]
	mov	QWORD PTR -16[rbp], rax
	lea	rcx, eb_car[rip]
	mov	rax, QWORD PTR -16[rbp]
	mov	rdx, rax
	call	eb_car
	mov	QWORD PTR -24[rbp], rax
	mov	rax, QWORD PTR -8[rbp]
	mov	rax, QWORD PTR [rax]
	mov	r8, rax
	mov	rdx, QWORD PTR -24[rbp]
	mov	rax, QWORD PTR -8[rbp]
	mov	rcx, rax
	call	r8
	mov	QWORD PTR -32[rbp], rax
	mov	rax, QWORD PTR 16[rbp]
	add	rax, 16
	mov	rax, QWORD PTR [rax]
	mov	QWORD PTR -40[rbp], rax
	lea	rcx, eb_cdr[rip]
	mov	rax, QWORD PTR -40[rbp]
	mov	rdx, rax
	call	eb_cdr
	mov	QWORD PTR -48[rbp], rax
	lea	rax, eb_map1f11f[rip]
	mov	QWORD PTR -80[rbp], rax
	mov	rax, QWORD PTR 16[rbp]
	add	rax, 8
	mov	rax, QWORD PTR [rax]
	mov	QWORD PTR -72[rbp], rax
	lea	rdx, -80[rbp]
	lea	rcx, eb_map[rip]
	mov	rax, QWORD PTR -48[rbp]
	mov	r8, rdx
	mov	rdx, rax
	call	eb_map
	mov	QWORD PTR -56[rbp], rax
	lea	rcx, eb_cons[rip]
	mov	rdx, QWORD PTR -56[rbp]
	mov	rax, QWORD PTR -32[rbp]
	mov	r8, rdx
	mov	rdx, rax
	call	eb_cons
	mov	QWORD PTR -64[rbp], rax
	mov	rax, QWORD PTR -64[rbp]
	add	rsp, 112
	pop	rbp
	ret
	.seh_endproc
	.globl	eb_map
	.def	eb_map;	.scl	2;	.type	32;	.endef
	.seh_proc	eb_map
eb_map:
	push	rbp
	.seh_pushreg	rbp
	mov	rbp, rsp
	.seh_setframe	rbp, 0
	sub	rsp, 80
	.seh_stackalloc	80
	.seh_endprologue
	mov	QWORD PTR 16[rbp], rcx
	mov	QWORD PTR 24[rbp], rdx
	mov	QWORD PTR 32[rbp], r8
	mov	rax, QWORD PTR 24[rbp]
	mov	QWORD PTR -8[rbp], rax
	lea	rax, eb_map1f[rip]
	mov	QWORD PTR -48[rbp], rax
	mov	rax, QWORD PTR 32[rbp]
	mov	QWORD PTR -40[rbp], rax
	mov	rax, QWORD PTR 24[rbp]
	mov	QWORD PTR -32[rbp], rax
	lea	rdx, -48[rbp]
	lea	rcx, eb_and[rip]
	mov	rax, QWORD PTR -8[rbp]
	mov	r8, rdx
	mov	rdx, rax
	call	eb_and
	mov	QWORD PTR -16[rbp], rax
	mov	rax, QWORD PTR -16[rbp]
	add	rsp, 80
	pop	rbp
	ret
	.seh_endproc
	.globl	eb_filter1f01f
	.def	eb_filter1f01f;	.scl	2;	.type	32;	.endef
	.seh_proc	eb_filter1f01f
eb_filter1f01f:
	push	rbp
	.seh_pushreg	rbp
	mov	rbp, rsp
	.seh_setframe	rbp, 0
	sub	rsp, 64
	.seh_stackalloc	64
	.seh_endprologue
	mov	QWORD PTR 16[rbp], rcx
	mov	QWORD PTR 24[rbp], rdx
	mov	rax, QWORD PTR 16[rbp]
	add	rax, 8
	mov	rax, QWORD PTR [rax]
	mov	QWORD PTR -8[rbp], rax
	mov	rax, QWORD PTR 24[rbp]
	mov	QWORD PTR -16[rbp], rax
	mov	rax, QWORD PTR -8[rbp]
	mov	rax, QWORD PTR [rax]
	mov	r8, rax
	mov	rdx, QWORD PTR -16[rbp]
	mov	rax, QWORD PTR -8[rbp]
	mov	rcx, rax
	call	r8
	mov	QWORD PTR -24[rbp], rax
	mov	rax, QWORD PTR -24[rbp]
	add	rsp, 64
	pop	rbp
	ret
	.seh_endproc
	.globl	eb_filter1f1f1f
	.def	eb_filter1f1f1f;	.scl	2;	.type	32;	.endef
	.seh_proc	eb_filter1f1f1f
eb_filter1f1f1f:
	push	rbp
	.seh_pushreg	rbp
	mov	rbp, rsp
	.seh_setframe	rbp, 0
	sub	rsp, 64
	.seh_stackalloc	64
	.seh_endprologue
	mov	QWORD PTR 16[rbp], rcx
	mov	rax, QWORD PTR 16[rbp]
	add	rax, 8
	mov	rax, QWORD PTR [rax]
	mov	QWORD PTR -8[rbp], rax
	lea	rcx, eb_car[rip]
	mov	rax, QWORD PTR -8[rbp]
	mov	rdx, rax
	call	eb_car
	mov	QWORD PTR -16[rbp], rax
	mov	rax, QWORD PTR 16[rbp]
	add	rax, 16
	mov	rax, QWORD PTR [rax]
	mov	QWORD PTR -24[rbp], rax
	lea	rcx, eb_cons[rip]
	mov	rdx, QWORD PTR -24[rbp]
	mov	rax, QWORD PTR -16[rbp]
	mov	r8, rdx
	mov	rdx, rax
	call	eb_cons
	mov	QWORD PTR -32[rbp], rax
	mov	rax, QWORD PTR -32[rbp]
	add	rsp, 64
	pop	rbp
	ret
	.seh_endproc
	.globl	eb_filter1f1f2f
	.def	eb_filter1f1f2f;	.scl	2;	.type	32;	.endef
	.seh_proc	eb_filter1f1f2f
eb_filter1f1f2f:
	push	rbp
	.seh_pushreg	rbp
	mov	rbp, rsp
	.seh_setframe	rbp, 0
	sub	rsp, 16
	.seh_stackalloc	16
	.seh_endprologue
	mov	QWORD PTR 16[rbp], rcx
	mov	rax, QWORD PTR 16[rbp]
	add	rax, 8
	mov	rax, QWORD PTR [rax]
	mov	QWORD PTR -8[rbp], rax
	mov	rax, QWORD PTR -8[rbp]
	add	rsp, 16
	pop	rbp
	ret
	.seh_endproc
	.globl	eb_filter1f1f
	.def	eb_filter1f1f;	.scl	2;	.type	32;	.endef
	.seh_proc	eb_filter1f1f
eb_filter1f1f:
	push	rbp
	.seh_pushreg	rbp
	mov	rbp, rsp
	.seh_setframe	rbp, 0
	sub	rsp, 112
	.seh_stackalloc	112
	.seh_endprologue
	mov	QWORD PTR 16[rbp], rcx
	mov	QWORD PTR 24[rbp], rdx
	mov	rax, QWORD PTR 16[rbp]
	add	rax, 8
	mov	rax, QWORD PTR [rax]
	mov	QWORD PTR -8[rbp], rax
	mov	rax, QWORD PTR 16[rbp]
	add	rax, 16
	mov	rax, QWORD PTR [rax]
	mov	QWORD PTR -16[rbp], rax
	lea	rcx, eb_car[rip]
	mov	rax, QWORD PTR -16[rbp]
	mov	rdx, rax
	call	eb_car
	mov	QWORD PTR -24[rbp], rax
	mov	rax, QWORD PTR -8[rbp]
	mov	rax, QWORD PTR [rax]
	mov	r8, rax
	mov	rdx, QWORD PTR -24[rbp]
	mov	rax, QWORD PTR -8[rbp]
	mov	rcx, rax
	call	r8
	mov	QWORD PTR -32[rbp], rax
	lea	rax, eb_filter1f1f1f[rip]
	mov	QWORD PTR -64[rbp], rax
	mov	rax, QWORD PTR 16[rbp]
	add	rax, 16
	mov	rax, QWORD PTR [rax]
	mov	QWORD PTR -56[rbp], rax
	mov	rax, QWORD PTR 24[rbp]
	mov	QWORD PTR -48[rbp], rax
	lea	rax, eb_filter1f1f2f[rip]
	mov	QWORD PTR -80[rbp], rax
	mov	rax, QWORD PTR 24[rbp]
	mov	QWORD PTR -72[rbp], rax
	lea	r8, -80[rbp]
	lea	rdx, -64[rbp]
	lea	rcx, eb_if[rip]
	mov	rax, QWORD PTR -32[rbp]
	mov	r9, r8
	mov	r8, rdx
	mov	rdx, rax
	call	eb_if
	mov	QWORD PTR -40[rbp], rax
	mov	rax, QWORD PTR -40[rbp]
	add	rsp, 112
	pop	rbp
	ret
	.seh_endproc
	.globl	eb_filter1f
	.def	eb_filter1f;	.scl	2;	.type	32;	.endef
	.seh_proc	eb_filter1f
eb_filter1f:
	push	rbp
	.seh_pushreg	rbp
	mov	rbp, rsp
	.seh_setframe	rbp, 0
	sub	rsp, 112
	.seh_stackalloc	112
	.seh_endprologue
	mov	QWORD PTR 16[rbp], rcx
	mov	rax, QWORD PTR 16[rbp]
	add	rax, 16
	mov	rax, QWORD PTR [rax]
	mov	QWORD PTR -8[rbp], rax
	lea	rcx, eb_cdr[rip]
	mov	rax, QWORD PTR -8[rbp]
	mov	rdx, rax
	call	eb_cdr
	mov	QWORD PTR -16[rbp], rax
	lea	rax, eb_filter1f01f[rip]
	mov	QWORD PTR -48[rbp], rax
	mov	rax, QWORD PTR 16[rbp]
	add	rax, 8
	mov	rax, QWORD PTR [rax]
	mov	QWORD PTR -40[rbp], rax
	lea	rdx, -48[rbp]
	lea	rcx, eb_filter[rip]
	mov	rax, QWORD PTR -16[rbp]
	mov	r8, rdx
	mov	rdx, rax
	call	eb_filter
	mov	QWORD PTR -24[rbp], rax
	lea	rax, eb_filter1f1f[rip]
	mov	QWORD PTR -80[rbp], rax
	mov	rax, QWORD PTR 16[rbp]
	add	rax, 8
	mov	rax, QWORD PTR [rax]
	mov	QWORD PTR -72[rbp], rax
	mov	rax, QWORD PTR 16[rbp]
	add	rax, 16
	mov	rax, QWORD PTR [rax]
	mov	QWORD PTR -64[rbp], rax
	lea	rdx, -80[rbp]
	lea	rcx, eb_let[rip]
	mov	rax, QWORD PTR -24[rbp]
	mov	r8, rdx
	mov	rdx, rax
	call	eb_let
	mov	QWORD PTR -32[rbp], rax
	mov	rax, QWORD PTR -32[rbp]
	add	rsp, 112
	pop	rbp
	ret
	.seh_endproc
	.globl	eb_filter
	.def	eb_filter;	.scl	2;	.type	32;	.endef
	.seh_proc	eb_filter
eb_filter:
	push	rbp
	.seh_pushreg	rbp
	mov	rbp, rsp
	.seh_setframe	rbp, 0
	sub	rsp, 80
	.seh_stackalloc	80
	.seh_endprologue
	mov	QWORD PTR 16[rbp], rcx
	mov	QWORD PTR 24[rbp], rdx
	mov	QWORD PTR 32[rbp], r8
	mov	rax, QWORD PTR 24[rbp]
	mov	QWORD PTR -8[rbp], rax
	lea	rax, eb_filter1f[rip]
	mov	QWORD PTR -48[rbp], rax
	mov	rax, QWORD PTR 32[rbp]
	mov	QWORD PTR -40[rbp], rax
	mov	rax, QWORD PTR 24[rbp]
	mov	QWORD PTR -32[rbp], rax
	lea	rdx, -48[rbp]
	lea	rcx, eb_and[rip]
	mov	rax, QWORD PTR -8[rbp]
	mov	r8, rdx
	mov	rdx, rax
	call	eb_and
	mov	QWORD PTR -16[rbp], rax
	mov	rax, QWORD PTR -16[rbp]
	add	rsp, 80
	pop	rbp
	ret
	.seh_endproc
	.globl	eb_contains1f1f1f
	.def	eb_contains1f1f1f;	.scl	2;	.type	32;	.endef
	.seh_proc	eb_contains1f1f1f
eb_contains1f1f1f:
	push	rbp
	.seh_pushreg	rbp
	mov	rbp, rsp
	.seh_setframe	rbp, 0
	sub	rsp, 64
	.seh_stackalloc	64
	.seh_endprologue
	mov	QWORD PTR 16[rbp], rcx
	mov	QWORD PTR 24[rbp], rdx
	mov	rax, QWORD PTR 16[rbp]
	add	rax, 8
	mov	rax, QWORD PTR [rax]
	mov	QWORD PTR -8[rbp], rax
	mov	rax, QWORD PTR 24[rbp]
	mov	QWORD PTR -16[rbp], rax
	mov	rax, QWORD PTR -8[rbp]
	mov	rax, QWORD PTR [rax]
	mov	r8, rax
	mov	rdx, QWORD PTR -16[rbp]
	mov	rax, QWORD PTR -8[rbp]
	mov	rcx, rax
	call	r8
	mov	QWORD PTR -24[rbp], rax
	mov	rax, QWORD PTR -24[rbp]
	add	rsp, 64
	pop	rbp
	ret
	.seh_endproc
	.globl	eb_contains1f1f
	.def	eb_contains1f1f;	.scl	2;	.type	32;	.endef
	.seh_proc	eb_contains1f1f
eb_contains1f1f:
	push	rbp
	.seh_pushreg	rbp
	mov	rbp, rsp
	.seh_setframe	rbp, 0
	sub	rsp, 80
	.seh_stackalloc	80
	.seh_endprologue
	mov	QWORD PTR 16[rbp], rcx
	mov	rax, QWORD PTR 16[rbp]
	add	rax, 16
	mov	rax, QWORD PTR [rax]
	mov	QWORD PTR -8[rbp], rax
	lea	rcx, eb_cdr[rip]
	mov	rax, QWORD PTR -8[rbp]
	mov	rdx, rax
	call	eb_cdr
	mov	QWORD PTR -16[rbp], rax
	lea	rax, eb_contains1f1f1f[rip]
	mov	QWORD PTR -48[rbp], rax
	mov	rax, QWORD PTR 16[rbp]
	add	rax, 8
	mov	rax, QWORD PTR [rax]
	mov	QWORD PTR -40[rbp], rax
	lea	rdx, -48[rbp]
	lea	rcx, eb_contains[rip]
	mov	rax, QWORD PTR -16[rbp]
	mov	r8, rdx
	mov	rdx, rax
	call	eb_contains
	mov	QWORD PTR -24[rbp], rax
	mov	rax, QWORD PTR -24[rbp]
	add	rsp, 80
	pop	rbp
	ret
	.seh_endproc
	.globl	eb_contains1f
	.def	eb_contains1f;	.scl	2;	.type	32;	.endef
	.seh_proc	eb_contains1f
eb_contains1f:
	push	rbp
	.seh_pushreg	rbp
	mov	rbp, rsp
	.seh_setframe	rbp, 0
	sub	rsp, 96
	.seh_stackalloc	96
	.seh_endprologue
	mov	QWORD PTR 16[rbp], rcx
	mov	rax, QWORD PTR 16[rbp]
	add	rax, 8
	mov	rax, QWORD PTR [rax]
	mov	QWORD PTR -8[rbp], rax
	mov	rax, QWORD PTR 16[rbp]
	add	rax, 16
	mov	rax, QWORD PTR [rax]
	mov	QWORD PTR -16[rbp], rax
	lea	rcx, eb_car[rip]
	mov	rax, QWORD PTR -16[rbp]
	mov	rdx, rax
	call	eb_car
	mov	QWORD PTR -24[rbp], rax
	mov	rax, QWORD PTR -8[rbp]
	mov	rax, QWORD PTR [rax]
	mov	r8, rax
	mov	rdx, QWORD PTR -24[rbp]
	mov	rax, QWORD PTR -8[rbp]
	mov	rcx, rax
	call	r8
	mov	QWORD PTR -32[rbp], rax
	lea	rax, eb_contains1f1f[rip]
	mov	QWORD PTR -64[rbp], rax
	mov	rax, QWORD PTR 16[rbp]
	add	rax, 8
	mov	rax, QWORD PTR [rax]
	mov	QWORD PTR -56[rbp], rax
	mov	rax, QWORD PTR 16[rbp]
	add	rax, 16
	mov	rax, QWORD PTR [rax]
	mov	QWORD PTR -48[rbp], rax
	lea	rdx, -64[rbp]
	lea	rcx, eb_or[rip]
	mov	rax, QWORD PTR -32[rbp]
	mov	r8, rdx
	mov	rdx, rax
	call	eb_or
	mov	QWORD PTR -40[rbp], rax
	mov	rax, QWORD PTR -40[rbp]
	add	rsp, 96
	pop	rbp
	ret
	.seh_endproc
	.globl	eb_contains
	.def	eb_contains;	.scl	2;	.type	32;	.endef
	.seh_proc	eb_contains
eb_contains:
	push	rbp
	.seh_pushreg	rbp
	mov	rbp, rsp
	.seh_setframe	rbp, 0
	sub	rsp, 80
	.seh_stackalloc	80
	.seh_endprologue
	mov	QWORD PTR 16[rbp], rcx
	mov	QWORD PTR 24[rbp], rdx
	mov	QWORD PTR 32[rbp], r8
	mov	rax, QWORD PTR 24[rbp]
	mov	QWORD PTR -8[rbp], rax
	lea	rax, eb_contains1f[rip]
	mov	QWORD PTR -48[rbp], rax
	mov	rax, QWORD PTR 32[rbp]
	mov	QWORD PTR -40[rbp], rax
	mov	rax, QWORD PTR 24[rbp]
	mov	QWORD PTR -32[rbp], rax
	lea	rdx, -48[rbp]
	lea	rcx, eb_and[rip]
	mov	rax, QWORD PTR -8[rbp]
	mov	r8, rdx
	mov	rdx, rax
	call	eb_and
	mov	QWORD PTR -16[rbp], rax
	mov	rax, QWORD PTR -16[rbp]
	add	rsp, 80
	pop	rbp
	ret
	.seh_endproc
	.globl	eb_length1f
	.def	eb_length1f;	.scl	2;	.type	32;	.endef
	.seh_proc	eb_length1f
eb_length1f:
	push	rbp
	.seh_pushreg	rbp
	mov	rbp, rsp
	.seh_setframe	rbp, 0
	sub	rsp, 80
	.seh_stackalloc	80
	.seh_endprologue
	mov	QWORD PTR 16[rbp], rcx
	mov	QWORD PTR -8[rbp], 1
	mov	rax, QWORD PTR 16[rbp]
	add	rax, 8
	mov	rax, QWORD PTR [rax]
	mov	QWORD PTR -16[rbp], rax
	lea	rcx, eb_cdr[rip]
	mov	rax, QWORD PTR -16[rbp]
	mov	rdx, rax
	call	eb_cdr
	mov	QWORD PTR -24[rbp], rax
	lea	rcx, eb_length[rip]
	mov	rax, QWORD PTR -24[rbp]
	mov	rdx, rax
	call	eb_length
	mov	QWORD PTR -32[rbp], rax
	lea	rcx, eb_add[rip]
	mov	rdx, QWORD PTR -32[rbp]
	mov	rax, QWORD PTR -8[rbp]
	mov	r8, rdx
	mov	rdx, rax
	call	eb_add
	mov	QWORD PTR -40[rbp], rax
	mov	rax, QWORD PTR -40[rbp]
	add	rsp, 80
	pop	rbp
	ret
	.seh_endproc
	.globl	eb_length
	.def	eb_length;	.scl	2;	.type	32;	.endef
	.seh_proc	eb_length
eb_length:
	push	rbp
	.seh_pushreg	rbp
	mov	rbp, rsp
	.seh_setframe	rbp, 0
	sub	rsp, 64
	.seh_stackalloc	64
	.seh_endprologue
	mov	QWORD PTR 16[rbp], rcx
	mov	QWORD PTR 24[rbp], rdx
	mov	rax, QWORD PTR 24[rbp]
	mov	QWORD PTR -8[rbp], rax
	lea	rax, eb_length1f[rip]
	mov	QWORD PTR -32[rbp], rax
	mov	rax, QWORD PTR 24[rbp]
	mov	QWORD PTR -24[rbp], rax
	lea	rdx, -32[rbp]
	lea	rcx, eb_and[rip]
	mov	rax, QWORD PTR -8[rbp]
	mov	r8, rdx
	mov	rdx, rax
	call	eb_and
	mov	QWORD PTR -16[rbp], rax
	mov	rax, QWORD PTR -16[rbp]
	add	rsp, 64
	pop	rbp
	ret
	.seh_endproc
	.globl	eb_put_line
	.def	eb_put_line;	.scl	2;	.type	32;	.endef
	.seh_proc	eb_put_line
eb_put_line:
	push	rbp
	.seh_pushreg	rbp
	mov	rbp, rsp
	.seh_setframe	rbp, 0
	sub	rsp, 48
	.seh_stackalloc	48
	.seh_endprologue
	mov	QWORD PTR 16[rbp], rcx
	mov	QWORD PTR -8[rbp], 10
	lea	rcx, eb_putchar[rip]
	mov	rax, QWORD PTR -8[rbp]
	mov	rdx, rax
	call	eb_putchar
	mov	QWORD PTR -16[rbp], rax
	mov	rax, QWORD PTR -16[rbp]
	add	rsp, 48
	pop	rbp
	ret
	.seh_endproc
	.globl	eb_put_str1f
	.def	eb_put_str1f;	.scl	2;	.type	32;	.endef
	.seh_proc	eb_put_str1f
eb_put_str1f:
	push	rbp
	.seh_pushreg	rbp
	mov	rbp, rsp
	.seh_setframe	rbp, 0
	sub	rsp, 48
	.seh_stackalloc	48
	.seh_endprologue
	mov	QWORD PTR 16[rbp], rcx
	mov	QWORD PTR 24[rbp], rdx
	mov	rax, QWORD PTR 24[rbp]
	mov	QWORD PTR -8[rbp], rax
	lea	rcx, eb_putchar[rip]
	mov	rax, QWORD PTR -8[rbp]
	mov	rdx, rax
	call	eb_putchar
	mov	QWORD PTR -16[rbp], rax
	mov	rax, QWORD PTR -16[rbp]
	add	rsp, 48
	pop	rbp
	ret
	.seh_endproc
	.globl	eb_put_str
	.def	eb_put_str;	.scl	2;	.type	32;	.endef
	.seh_proc	eb_put_str
eb_put_str:
	push	rbp
	.seh_pushreg	rbp
	mov	rbp, rsp
	.seh_setframe	rbp, 0
	sub	rsp, 64
	.seh_stackalloc	64
	.seh_endprologue
	mov	QWORD PTR 16[rbp], rcx
	mov	QWORD PTR 24[rbp], rdx
	mov	rax, QWORD PTR 24[rbp]
	mov	QWORD PTR -8[rbp], rax
	lea	rax, eb_put_str1f[rip]
	mov	QWORD PTR -24[rbp], rax
	lea	rdx, -24[rbp]
	lea	rcx, eb_for[rip]
	mov	rax, QWORD PTR -8[rbp]
	mov	r8, rdx
	mov	rdx, rax
	call	eb_for
	mov	QWORD PTR -16[rbp], rax
	mov	rax, QWORD PTR -16[rbp]
	add	rsp, 64
	pop	rbp
	ret
	.seh_endproc
	.globl	eb_put_digit
	.def	eb_put_digit;	.scl	2;	.type	32;	.endef
	.seh_proc	eb_put_digit
eb_put_digit:
	push	rbp
	.seh_pushreg	rbp
	mov	rbp, rsp
	.seh_setframe	rbp, 0
	sub	rsp, 80
	.seh_stackalloc	80
	.seh_endprologue
	mov	QWORD PTR 16[rbp], rcx
	mov	QWORD PTR 24[rbp], rdx
	mov	QWORD PTR -8[rbp], 48
	mov	QWORD PTR -16[rbp], 10
	mov	rax, QWORD PTR 24[rbp]
	mov	QWORD PTR -24[rbp], rax
	lea	rcx, eb_mod[rip]
	mov	rdx, QWORD PTR -24[rbp]
	mov	rax, QWORD PTR -16[rbp]
	mov	r8, rdx
	mov	rdx, rax
	call	eb_mod
	mov	QWORD PTR -32[rbp], rax
	lea	rcx, eb_add[rip]
	mov	rdx, QWORD PTR -32[rbp]
	mov	rax, QWORD PTR -8[rbp]
	mov	r8, rdx
	mov	rdx, rax
	call	eb_add
	mov	QWORD PTR -40[rbp], rax
	lea	rcx, eb_putchar[rip]
	mov	rax, QWORD PTR -40[rbp]
	mov	rdx, rax
	call	eb_putchar
	mov	QWORD PTR -48[rbp], rax
	mov	rax, QWORD PTR -48[rbp]
	add	rsp, 80
	pop	rbp
	ret
	.seh_endproc
	.globl	eb_put_num_nonzero1f
	.def	eb_put_num_nonzero1f;	.scl	2;	.type	32;	.endef
	.seh_proc	eb_put_num_nonzero1f
eb_put_num_nonzero1f:
	push	rbp
	.seh_pushreg	rbp
	mov	rbp, rsp
	.seh_setframe	rbp, 0
	sub	rsp, 96
	.seh_stackalloc	96
	.seh_endprologue
	mov	QWORD PTR 16[rbp], rcx
	mov	QWORD PTR -8[rbp], 10
	mov	rax, QWORD PTR 16[rbp]
	add	rax, 8
	mov	rax, QWORD PTR [rax]
	mov	QWORD PTR -16[rbp], rax
	lea	rcx, eb_div[rip]
	mov	rdx, QWORD PTR -16[rbp]
	mov	rax, QWORD PTR -8[rbp]
	mov	r8, rdx
	mov	rdx, rax
	call	eb_div
	mov	QWORD PTR -24[rbp], rax
	lea	rcx, eb_put_num_nonzero[rip]
	mov	rax, QWORD PTR -24[rbp]
	mov	rdx, rax
	call	eb_put_num_nonzero
	mov	QWORD PTR -32[rbp], rax
	mov	rax, QWORD PTR 16[rbp]
	add	rax, 8
	mov	rax, QWORD PTR [rax]
	mov	QWORD PTR -40[rbp], rax
	lea	rcx, eb_put_digit[rip]
	mov	rax, QWORD PTR -40[rbp]
	mov	rdx, rax
	call	eb_put_digit
	mov	QWORD PTR -48[rbp], rax
	lea	rcx, eb_do[rip]
	mov	rdx, QWORD PTR -48[rbp]
	mov	rax, QWORD PTR -32[rbp]
	mov	r8, rdx
	mov	rdx, rax
	call	eb_do
	mov	QWORD PTR -56[rbp], rax
	mov	rax, QWORD PTR -56[rbp]
	add	rsp, 96
	pop	rbp
	ret
	.seh_endproc
	.globl	eb_put_num_nonzero
	.def	eb_put_num_nonzero;	.scl	2;	.type	32;	.endef
	.seh_proc	eb_put_num_nonzero
eb_put_num_nonzero:
	push	rbp
	.seh_pushreg	rbp
	mov	rbp, rsp
	.seh_setframe	rbp, 0
	sub	rsp, 80
	.seh_stackalloc	80
	.seh_endprologue
	mov	QWORD PTR 16[rbp], rcx
	mov	QWORD PTR 24[rbp], rdx
	mov	QWORD PTR -8[rbp], 0
	mov	rax, QWORD PTR 24[rbp]
	mov	QWORD PTR -16[rbp], rax
	lea	rcx, eb_equal[rip]
	mov	rdx, QWORD PTR -16[rbp]
	mov	rax, QWORD PTR -8[rbp]
	mov	r8, rdx
	mov	rdx, rax
	call	eb_equal
	mov	QWORD PTR -24[rbp], rax
	lea	rax, eb_put_num_nonzero1f[rip]
	mov	QWORD PTR -48[rbp], rax
	mov	rax, QWORD PTR 24[rbp]
	mov	QWORD PTR -40[rbp], rax
	lea	rdx, -48[rbp]
	lea	rcx, eb_or[rip]
	mov	rax, QWORD PTR -24[rbp]
	mov	r8, rdx
	mov	rdx, rax
	call	eb_or
	mov	QWORD PTR -32[rbp], rax
	mov	rax, QWORD PTR -32[rbp]
	add	rsp, 80
	pop	rbp
	ret
	.seh_endproc
	.globl	eb_put_num1f
	.def	eb_put_num1f;	.scl	2;	.type	32;	.endef
	.seh_proc	eb_put_num1f
eb_put_num1f:
	push	rbp
	.seh_pushreg	rbp
	mov	rbp, rsp
	.seh_setframe	rbp, 0
	sub	rsp, 48
	.seh_stackalloc	48
	.seh_endprologue
	mov	QWORD PTR 16[rbp], rcx
	mov	rax, QWORD PTR 16[rbp]
	add	rax, 8
	mov	rax, QWORD PTR [rax]
	mov	QWORD PTR -8[rbp], rax
	lea	rcx, eb_put_num_nonzero[rip]
	mov	rax, QWORD PTR -8[rbp]
	mov	rdx, rax
	call	eb_put_num_nonzero
	mov	QWORD PTR -16[rbp], rax
	mov	rax, QWORD PTR -16[rbp]
	add	rsp, 48
	pop	rbp
	ret
	.seh_endproc
	.globl	eb_put_num2f
	.def	eb_put_num2f;	.scl	2;	.type	32;	.endef
	.seh_proc	eb_put_num2f
eb_put_num2f:
	push	rbp
	.seh_pushreg	rbp
	mov	rbp, rsp
	.seh_setframe	rbp, 0
	sub	rsp, 48
	.seh_stackalloc	48
	.seh_endprologue
	mov	QWORD PTR 16[rbp], rcx
	mov	QWORD PTR -8[rbp], 0
	lea	rcx, eb_put_digit[rip]
	mov	rax, QWORD PTR -8[rbp]
	mov	rdx, rax
	call	eb_put_digit
	mov	QWORD PTR -16[rbp], rax
	mov	rax, QWORD PTR -16[rbp]
	add	rsp, 48
	pop	rbp
	ret
	.seh_endproc
	.globl	eb_put_num
	.def	eb_put_num;	.scl	2;	.type	32;	.endef
	.seh_proc	eb_put_num
eb_put_num:
	push	rbp
	.seh_pushreg	rbp
	mov	rbp, rsp
	.seh_setframe	rbp, 0
	sub	rsp, 80
	.seh_stackalloc	80
	.seh_endprologue
	mov	QWORD PTR 16[rbp], rcx
	mov	QWORD PTR 24[rbp], rdx
	mov	rax, QWORD PTR 24[rbp]
	mov	QWORD PTR -8[rbp], rax
	lea	rax, eb_put_num1f[rip]
	mov	QWORD PTR -32[rbp], rax
	mov	rax, QWORD PTR 24[rbp]
	mov	QWORD PTR -24[rbp], rax
	lea	rax, eb_put_num2f[rip]
	mov	QWORD PTR -40[rbp], rax
	lea	r8, -40[rbp]
	lea	rdx, -32[rbp]
	lea	rcx, eb_if[rip]
	mov	rax, QWORD PTR -8[rbp]
	mov	r9, r8
	mov	r8, rdx
	mov	rdx, rax
	call	eb_if
	mov	QWORD PTR -16[rbp], rax
	mov	rax, QWORD PTR -16[rbp]
	add	rsp, 80
	pop	rbp
	ret
	.seh_endproc
	.globl	eb_put_list_sep_from1f01f
	.def	eb_put_list_sep_from1f01f;	.scl	2;	.type	32;	.endef
	.seh_proc	eb_put_list_sep_from1f01f
eb_put_list_sep_from1f01f:
	push	rbp
	.seh_pushreg	rbp
	mov	rbp, rsp
	.seh_setframe	rbp, 0
	sub	rsp, 48
	.seh_stackalloc	48
	.seh_endprologue
	mov	QWORD PTR 16[rbp], rcx
	mov	rax, QWORD PTR 16[rbp]
	add	rax, 8
	mov	rax, QWORD PTR [rax]
	mov	QWORD PTR -8[rbp], rax
	mov	rax, QWORD PTR -8[rbp]
	mov	rax, QWORD PTR [rax]
	mov	rdx, rax
	mov	rax, QWORD PTR -8[rbp]
	mov	rcx, rax
	call	rdx
	mov	QWORD PTR -16[rbp], rax
	mov	rax, QWORD PTR -16[rbp]
	add	rsp, 48
	pop	rbp
	ret
	.seh_endproc
	.globl	eb_put_list_sep_from1f112f
	.def	eb_put_list_sep_from1f112f;	.scl	2;	.type	32;	.endef
	.seh_proc	eb_put_list_sep_from1f112f
eb_put_list_sep_from1f112f:
	push	rbp
	.seh_pushreg	rbp
	mov	rbp, rsp
	.seh_setframe	rbp, 0
	sub	rsp, 48
	.seh_stackalloc	48
	.seh_endprologue
	mov	QWORD PTR 16[rbp], rcx
	mov	rax, QWORD PTR 16[rbp]
	add	rax, 8
	mov	rax, QWORD PTR [rax]
	mov	QWORD PTR -8[rbp], rax
	mov	rax, QWORD PTR -8[rbp]
	mov	rax, QWORD PTR [rax]
	mov	rdx, rax
	mov	rax, QWORD PTR -8[rbp]
	mov	rcx, rax
	call	rdx
	mov	QWORD PTR -16[rbp], rax
	mov	rax, QWORD PTR -16[rbp]
	add	rsp, 48
	pop	rbp
	ret
	.seh_endproc
	.globl	eb_put_list_sep_from1f113f
	.def	eb_put_list_sep_from1f113f;	.scl	2;	.type	32;	.endef
	.seh_proc	eb_put_list_sep_from1f113f
eb_put_list_sep_from1f113f:
	push	rbp
	.seh_pushreg	rbp
	mov	rbp, rsp
	.seh_setframe	rbp, 0
	sub	rsp, 64
	.seh_stackalloc	64
	.seh_endprologue
	mov	QWORD PTR 16[rbp], rcx
	mov	QWORD PTR 24[rbp], rdx
	mov	rax, QWORD PTR 16[rbp]
	add	rax, 8
	mov	rax, QWORD PTR [rax]
	mov	QWORD PTR -8[rbp], rax
	mov	rax, QWORD PTR 24[rbp]
	mov	QWORD PTR -16[rbp], rax
	mov	rax, QWORD PTR -8[rbp]
	mov	rax, QWORD PTR [rax]
	mov	r8, rax
	mov	rdx, QWORD PTR -16[rbp]
	mov	rax, QWORD PTR -8[rbp]
	mov	rcx, rax
	call	r8
	mov	QWORD PTR -24[rbp], rax
	mov	rax, QWORD PTR -24[rbp]
	add	rsp, 64
	pop	rbp
	ret
	.seh_endproc
	.globl	eb_put_list_sep_from1f
	.def	eb_put_list_sep_from1f;	.scl	2;	.type	32;	.endef
	.seh_proc	eb_put_list_sep_from1f
eb_put_list_sep_from1f:
	push	rbp
	.seh_pushreg	rbp
	mov	rbp, rsp
	.seh_setframe	rbp, 0
	sub	rsp, 208
	.seh_stackalloc	208
	.seh_endprologue
	mov	QWORD PTR 16[rbp], rcx
	mov	rax, QWORD PTR 16[rbp]
	add	rax, 32
	mov	rax, QWORD PTR [rax]
	mov	QWORD PTR -8[rbp], rax
	lea	rax, eb_put_list_sep_from1f01f[rip]
	mov	QWORD PTR -128[rbp], rax
	mov	rax, QWORD PTR 16[rbp]
	add	rax, 16
	mov	rax, QWORD PTR [rax]
	mov	QWORD PTR -120[rbp], rax
	lea	rdx, -128[rbp]
	lea	rcx, eb_and[rip]
	mov	rax, QWORD PTR -8[rbp]
	mov	r8, rdx
	mov	rdx, rax
	call	eb_and
	mov	QWORD PTR -16[rbp], rax
	mov	rax, QWORD PTR 16[rbp]
	add	rax, 8
	mov	rax, QWORD PTR [rax]
	mov	QWORD PTR -24[rbp], rax
	mov	rax, QWORD PTR 16[rbp]
	add	rax, 24
	mov	rax, QWORD PTR [rax]
	mov	QWORD PTR -32[rbp], rax
	lea	rcx, eb_car[rip]
	mov	rax, QWORD PTR -32[rbp]
	mov	rdx, rax
	call	eb_car
	mov	QWORD PTR -40[rbp], rax
	mov	rax, QWORD PTR -24[rbp]
	mov	rax, QWORD PTR [rax]
	mov	r8, rax
	mov	rdx, QWORD PTR -40[rbp]
	mov	rax, QWORD PTR -24[rbp]
	mov	rcx, rax
	call	r8
	mov	QWORD PTR -48[rbp], rax
	mov	QWORD PTR -56[rbp], 1
	mov	rax, QWORD PTR 16[rbp]
	add	rax, 32
	mov	rax, QWORD PTR [rax]
	mov	QWORD PTR -64[rbp], rax
	lea	rcx, eb_add[rip]
	mov	rdx, QWORD PTR -64[rbp]
	mov	rax, QWORD PTR -56[rbp]
	mov	r8, rdx
	mov	rdx, rax
	call	eb_add
	mov	QWORD PTR -72[rbp], rax
	mov	rax, QWORD PTR 16[rbp]
	add	rax, 24
	mov	rax, QWORD PTR [rax]
	mov	QWORD PTR -80[rbp], rax
	lea	rcx, eb_cdr[rip]
	mov	rax, QWORD PTR -80[rbp]
	mov	rdx, rax
	call	eb_cdr
	mov	QWORD PTR -88[rbp], rax
	lea	rax, eb_put_list_sep_from1f112f[rip]
	mov	QWORD PTR -144[rbp], rax
	mov	rax, QWORD PTR 16[rbp]
	add	rax, 16
	mov	rax, QWORD PTR [rax]
	mov	QWORD PTR -136[rbp], rax
	lea	rax, eb_put_list_sep_from1f113f[rip]
	mov	QWORD PTR -160[rbp], rax
	mov	rax, QWORD PTR 16[rbp]
	add	rax, 8
	mov	rax, QWORD PTR [rax]
	mov	QWORD PTR -152[rbp], rax
	lea	rdx, -160[rbp]
	lea	r9, -144[rbp]
	lea	rcx, eb_put_list_sep_from[rip]
	mov	r8, QWORD PTR -88[rbp]
	mov	rax, QWORD PTR -72[rbp]
	mov	QWORD PTR 32[rsp], rdx
	mov	rdx, rax
	call	eb_put_list_sep_from
	mov	QWORD PTR -96[rbp], rax
	lea	rcx, eb_do[rip]
	mov	rdx, QWORD PTR -96[rbp]
	mov	rax, QWORD PTR -48[rbp]
	mov	r8, rdx
	mov	rdx, rax
	call	eb_do
	mov	QWORD PTR -104[rbp], rax
	lea	rcx, eb_do[rip]
	mov	rdx, QWORD PTR -104[rbp]
	mov	rax, QWORD PTR -16[rbp]
	mov	r8, rdx
	mov	rdx, rax
	call	eb_do
	mov	QWORD PTR -112[rbp], rax
	mov	rax, QWORD PTR -112[rbp]
	add	rsp, 208
	pop	rbp
	ret
	.seh_endproc
	.globl	eb_put_list_sep_from
	.def	eb_put_list_sep_from;	.scl	2;	.type	32;	.endef
	.seh_proc	eb_put_list_sep_from
eb_put_list_sep_from:
	push	rbp
	.seh_pushreg	rbp
	mov	rbp, rsp
	.seh_setframe	rbp, 0
	sub	rsp, 96
	.seh_stackalloc	96
	.seh_endprologue
	mov	QWORD PTR 16[rbp], rcx
	mov	QWORD PTR 24[rbp], rdx
	mov	QWORD PTR 32[rbp], r8
	mov	QWORD PTR 40[rbp], r9
	mov	rax, QWORD PTR 32[rbp]
	mov	QWORD PTR -8[rbp], rax
	lea	rax, eb_put_list_sep_from1f[rip]
	mov	QWORD PTR -64[rbp], rax
	mov	rax, QWORD PTR 48[rbp]
	mov	QWORD PTR -56[rbp], rax
	mov	rax, QWORD PTR 40[rbp]
	mov	QWORD PTR -48[rbp], rax
	mov	rax, QWORD PTR 32[rbp]
	mov	QWORD PTR -40[rbp], rax
	mov	rax, QWORD PTR 24[rbp]
	mov	QWORD PTR -32[rbp], rax
	lea	rdx, -64[rbp]
	lea	rcx, eb_and[rip]
	mov	rax, QWORD PTR -8[rbp]
	mov	r8, rdx
	mov	rdx, rax
	call	eb_and
	mov	QWORD PTR -16[rbp], rax
	mov	rax, QWORD PTR -16[rbp]
	add	rsp, 96
	pop	rbp
	ret
	.seh_endproc
	.globl	eb_put_list_sep2f
	.def	eb_put_list_sep2f;	.scl	2;	.type	32;	.endef
	.seh_proc	eb_put_list_sep2f
eb_put_list_sep2f:
	push	rbp
	.seh_pushreg	rbp
	mov	rbp, rsp
	.seh_setframe	rbp, 0
	sub	rsp, 48
	.seh_stackalloc	48
	.seh_endprologue
	mov	QWORD PTR 16[rbp], rcx
	mov	rax, QWORD PTR 16[rbp]
	add	rax, 8
	mov	rax, QWORD PTR [rax]
	mov	QWORD PTR -8[rbp], rax
	mov	rax, QWORD PTR -8[rbp]
	mov	rax, QWORD PTR [rax]
	mov	rdx, rax
	mov	rax, QWORD PTR -8[rbp]
	mov	rcx, rax
	call	rdx
	mov	QWORD PTR -16[rbp], rax
	mov	rax, QWORD PTR -16[rbp]
	add	rsp, 48
	pop	rbp
	ret
	.seh_endproc
	.globl	eb_put_list_sep3f
	.def	eb_put_list_sep3f;	.scl	2;	.type	32;	.endef
	.seh_proc	eb_put_list_sep3f
eb_put_list_sep3f:
	push	rbp
	.seh_pushreg	rbp
	mov	rbp, rsp
	.seh_setframe	rbp, 0
	sub	rsp, 64
	.seh_stackalloc	64
	.seh_endprologue
	mov	QWORD PTR 16[rbp], rcx
	mov	QWORD PTR 24[rbp], rdx
	mov	rax, QWORD PTR 16[rbp]
	add	rax, 8
	mov	rax, QWORD PTR [rax]
	mov	QWORD PTR -8[rbp], rax
	mov	rax, QWORD PTR 24[rbp]
	mov	QWORD PTR -16[rbp], rax
	mov	rax, QWORD PTR -8[rbp]
	mov	rax, QWORD PTR [rax]
	mov	r8, rax
	mov	rdx, QWORD PTR -16[rbp]
	mov	rax, QWORD PTR -8[rbp]
	mov	rcx, rax
	call	r8
	mov	QWORD PTR -24[rbp], rax
	mov	rax, QWORD PTR -24[rbp]
	add	rsp, 64
	pop	rbp
	ret
	.seh_endproc
	.globl	eb_put_list_sep
	.def	eb_put_list_sep;	.scl	2;	.type	32;	.endef
	.seh_proc	eb_put_list_sep
eb_put_list_sep:
	push	rbp
	.seh_pushreg	rbp
	mov	rbp, rsp
	.seh_setframe	rbp, 0
	sub	rsp, 112
	.seh_stackalloc	112
	.seh_endprologue
	mov	QWORD PTR 16[rbp], rcx
	mov	QWORD PTR 24[rbp], rdx
	mov	QWORD PTR 32[rbp], r8
	mov	QWORD PTR 40[rbp], r9
	mov	QWORD PTR -8[rbp], 0
	mov	rax, QWORD PTR 24[rbp]
	mov	QWORD PTR -16[rbp], rax
	lea	rax, eb_put_list_sep2f[rip]
	mov	QWORD PTR -48[rbp], rax
	mov	rax, QWORD PTR 32[rbp]
	mov	QWORD PTR -40[rbp], rax
	lea	rax, eb_put_list_sep3f[rip]
	mov	QWORD PTR -64[rbp], rax
	mov	rax, QWORD PTR 40[rbp]
	mov	QWORD PTR -56[rbp], rax
	lea	rdx, -64[rbp]
	lea	r9, -48[rbp]
	lea	rcx, eb_put_list_sep_from[rip]
	mov	r8, QWORD PTR -16[rbp]
	mov	rax, QWORD PTR -8[rbp]
	mov	QWORD PTR 32[rsp], rdx
	mov	rdx, rax
	call	eb_put_list_sep_from
	mov	QWORD PTR -24[rbp], rax
	mov	rax, QWORD PTR -24[rbp]
	add	rsp, 112
	pop	rbp
	ret
	.seh_endproc
	.globl	eb_reverse_from1f
	.def	eb_reverse_from1f;	.scl	2;	.type	32;	.endef
	.seh_proc	eb_reverse_from1f
eb_reverse_from1f:
	push	rbp
	.seh_pushreg	rbp
	mov	rbp, rsp
	.seh_setframe	rbp, 0
	sub	rsp, 96
	.seh_stackalloc	96
	.seh_endprologue
	mov	QWORD PTR 16[rbp], rcx
	mov	rax, QWORD PTR 16[rbp]
	add	rax, 16
	mov	rax, QWORD PTR [rax]
	mov	QWORD PTR -8[rbp], rax
	lea	rcx, eb_cdr[rip]
	mov	rax, QWORD PTR -8[rbp]
	mov	rdx, rax
	call	eb_cdr
	mov	QWORD PTR -16[rbp], rax
	mov	rax, QWORD PTR 16[rbp]
	add	rax, 16
	mov	rax, QWORD PTR [rax]
	mov	QWORD PTR -24[rbp], rax
	lea	rcx, eb_car[rip]
	mov	rax, QWORD PTR -24[rbp]
	mov	rdx, rax
	call	eb_car
	mov	QWORD PTR -32[rbp], rax
	mov	rax, QWORD PTR 16[rbp]
	add	rax, 8
	mov	rax, QWORD PTR [rax]
	mov	QWORD PTR -40[rbp], rax
	lea	rcx, eb_cons[rip]
	mov	rdx, QWORD PTR -40[rbp]
	mov	rax, QWORD PTR -32[rbp]
	mov	r8, rdx
	mov	rdx, rax
	call	eb_cons
	mov	QWORD PTR -48[rbp], rax
	lea	rcx, eb_reverse_from[rip]
	mov	rdx, QWORD PTR -48[rbp]
	mov	rax, QWORD PTR -16[rbp]
	mov	r8, rdx
	mov	rdx, rax
	call	eb_reverse_from
	mov	QWORD PTR -56[rbp], rax
	mov	rax, QWORD PTR -56[rbp]
	add	rsp, 96
	pop	rbp
	ret
	.seh_endproc
	.globl	eb_reverse_from2f
	.def	eb_reverse_from2f;	.scl	2;	.type	32;	.endef
	.seh_proc	eb_reverse_from2f
eb_reverse_from2f:
	push	rbp
	.seh_pushreg	rbp
	mov	rbp, rsp
	.seh_setframe	rbp, 0
	sub	rsp, 16
	.seh_stackalloc	16
	.seh_endprologue
	mov	QWORD PTR 16[rbp], rcx
	mov	rax, QWORD PTR 16[rbp]
	add	rax, 8
	mov	rax, QWORD PTR [rax]
	mov	QWORD PTR -8[rbp], rax
	mov	rax, QWORD PTR -8[rbp]
	add	rsp, 16
	pop	rbp
	ret
	.seh_endproc
	.globl	eb_reverse_from
	.def	eb_reverse_from;	.scl	2;	.type	32;	.endef
	.seh_proc	eb_reverse_from
eb_reverse_from:
	push	rbp
	.seh_pushreg	rbp
	mov	rbp, rsp
	.seh_setframe	rbp, 0
	sub	rsp, 96
	.seh_stackalloc	96
	.seh_endprologue
	mov	QWORD PTR 16[rbp], rcx
	mov	QWORD PTR 24[rbp], rdx
	mov	QWORD PTR 32[rbp], r8
	mov	rax, QWORD PTR 24[rbp]
	mov	QWORD PTR -8[rbp], rax
	lea	rax, eb_reverse_from1f[rip]
	mov	QWORD PTR -48[rbp], rax
	mov	rax, QWORD PTR 32[rbp]
	mov	QWORD PTR -40[rbp], rax
	mov	rax, QWORD PTR 24[rbp]
	mov	QWORD PTR -32[rbp], rax
	lea	rax, eb_reverse_from2f[rip]
	mov	QWORD PTR -64[rbp], rax
	mov	rax, QWORD PTR 32[rbp]
	mov	QWORD PTR -56[rbp], rax
	lea	r8, -64[rbp]
	lea	rdx, -48[rbp]
	lea	rcx, eb_if[rip]
	mov	rax, QWORD PTR -8[rbp]
	mov	r9, r8
	mov	r8, rdx
	mov	rdx, rax
	call	eb_if
	mov	QWORD PTR -16[rbp], rax
	mov	rax, QWORD PTR -16[rbp]
	add	rsp, 96
	pop	rbp
	ret
	.seh_endproc
	.globl	eb_reverse
	.def	eb_reverse;	.scl	2;	.type	32;	.endef
	.seh_proc	eb_reverse
eb_reverse:
	push	rbp
	.seh_pushreg	rbp
	mov	rbp, rsp
	.seh_setframe	rbp, 0
	sub	rsp, 64
	.seh_stackalloc	64
	.seh_endprologue
	mov	QWORD PTR 16[rbp], rcx
	mov	QWORD PTR 24[rbp], rdx
	mov	rax, QWORD PTR 24[rbp]
	mov	QWORD PTR -8[rbp], rax
	mov	QWORD PTR -16[rbp], 0
	lea	rcx, eb_reverse_from[rip]
	mov	rdx, QWORD PTR -16[rbp]
	mov	rax, QWORD PTR -8[rbp]
	mov	r8, rdx
	mov	rdx, rax
	call	eb_reverse_from
	mov	QWORD PTR -24[rbp], rax
	mov	rax, QWORD PTR -24[rbp]
	add	rsp, 64
	pop	rbp
	ret
	.seh_endproc
	.globl	eb_concat1f
	.def	eb_concat1f;	.scl	2;	.type	32;	.endef
	.seh_proc	eb_concat1f
eb_concat1f:
	push	rbp
	.seh_pushreg	rbp
	mov	rbp, rsp
	.seh_setframe	rbp, 0
	sub	rsp, 96
	.seh_stackalloc	96
	.seh_endprologue
	mov	QWORD PTR 16[rbp], rcx
	mov	rax, QWORD PTR 16[rbp]
	add	rax, 16
	mov	rax, QWORD PTR [rax]
	mov	QWORD PTR -8[rbp], rax
	lea	rcx, eb_car[rip]
	mov	rax, QWORD PTR -8[rbp]
	mov	rdx, rax
	call	eb_car
	mov	QWORD PTR -16[rbp], rax
	mov	rax, QWORD PTR 16[rbp]
	add	rax, 16
	mov	rax, QWORD PTR [rax]
	mov	QWORD PTR -24[rbp], rax
	lea	rcx, eb_cdr[rip]
	mov	rax, QWORD PTR -24[rbp]
	mov	rdx, rax
	call	eb_cdr
	mov	QWORD PTR -32[rbp], rax
	mov	rax, QWORD PTR 16[rbp]
	add	rax, 8
	mov	rax, QWORD PTR [rax]
	mov	QWORD PTR -40[rbp], rax
	lea	rcx, eb_concat[rip]
	mov	rdx, QWORD PTR -40[rbp]
	mov	rax, QWORD PTR -32[rbp]
	mov	r8, rdx
	mov	rdx, rax
	call	eb_concat
	mov	QWORD PTR -48[rbp], rax
	lea	rcx, eb_cons[rip]
	mov	rdx, QWORD PTR -48[rbp]
	mov	rax, QWORD PTR -16[rbp]
	mov	r8, rdx
	mov	rdx, rax
	call	eb_cons
	mov	QWORD PTR -56[rbp], rax
	mov	rax, QWORD PTR -56[rbp]
	add	rsp, 96
	pop	rbp
	ret
	.seh_endproc
	.globl	eb_concat2f
	.def	eb_concat2f;	.scl	2;	.type	32;	.endef
	.seh_proc	eb_concat2f
eb_concat2f:
	push	rbp
	.seh_pushreg	rbp
	mov	rbp, rsp
	.seh_setframe	rbp, 0
	sub	rsp, 16
	.seh_stackalloc	16
	.seh_endprologue
	mov	QWORD PTR 16[rbp], rcx
	mov	rax, QWORD PTR 16[rbp]
	add	rax, 8
	mov	rax, QWORD PTR [rax]
	mov	QWORD PTR -8[rbp], rax
	mov	rax, QWORD PTR -8[rbp]
	add	rsp, 16
	pop	rbp
	ret
	.seh_endproc
	.globl	eb_concat
	.def	eb_concat;	.scl	2;	.type	32;	.endef
	.seh_proc	eb_concat
eb_concat:
	push	rbp
	.seh_pushreg	rbp
	mov	rbp, rsp
	.seh_setframe	rbp, 0
	sub	rsp, 96
	.seh_stackalloc	96
	.seh_endprologue
	mov	QWORD PTR 16[rbp], rcx
	mov	QWORD PTR 24[rbp], rdx
	mov	QWORD PTR 32[rbp], r8
	mov	rax, QWORD PTR 24[rbp]
	mov	QWORD PTR -8[rbp], rax
	lea	rax, eb_concat1f[rip]
	mov	QWORD PTR -48[rbp], rax
	mov	rax, QWORD PTR 32[rbp]
	mov	QWORD PTR -40[rbp], rax
	mov	rax, QWORD PTR 24[rbp]
	mov	QWORD PTR -32[rbp], rax
	lea	rax, eb_concat2f[rip]
	mov	QWORD PTR -64[rbp], rax
	mov	rax, QWORD PTR 32[rbp]
	mov	QWORD PTR -56[rbp], rax
	lea	r8, -64[rbp]
	lea	rdx, -48[rbp]
	lea	rcx, eb_if[rip]
	mov	rax, QWORD PTR -8[rbp]
	mov	r9, r8
	mov	r8, rdx
	mov	rdx, rax
	call	eb_if
	mov	QWORD PTR -16[rbp], rax
	mov	rax, QWORD PTR -16[rbp]
	add	rsp, 96
	pop	rbp
	ret
	.seh_endproc
	.globl	eb_flatten2f
	.def	eb_flatten2f;	.scl	2;	.type	32;	.endef
	.seh_proc	eb_flatten2f
eb_flatten2f:
	push	rbp
	.seh_pushreg	rbp
	mov	rbp, rsp
	.seh_setframe	rbp, 0
	sub	rsp, 64
	.seh_stackalloc	64
	.seh_endprologue
	mov	QWORD PTR 16[rbp], rcx
	mov	QWORD PTR 24[rbp], rdx
	mov	QWORD PTR 32[rbp], r8
	mov	rax, QWORD PTR 32[rbp]
	mov	QWORD PTR -8[rbp], rax
	mov	rax, QWORD PTR 24[rbp]
	mov	QWORD PTR -16[rbp], rax
	lea	rcx, eb_concat[rip]
	mov	rdx, QWORD PTR -16[rbp]
	mov	rax, QWORD PTR -8[rbp]
	mov	r8, rdx
	mov	rdx, rax
	call	eb_concat
	mov	QWORD PTR -24[rbp], rax
	mov	rax, QWORD PTR -24[rbp]
	add	rsp, 64
	pop	rbp
	ret
	.seh_endproc
	.globl	eb_flatten
	.def	eb_flatten;	.scl	2;	.type	32;	.endef
	.seh_proc	eb_flatten
eb_flatten:
	push	rbp
	.seh_pushreg	rbp
	mov	rbp, rsp
	.seh_setframe	rbp, 0
	sub	rsp, 64
	.seh_stackalloc	64
	.seh_endprologue
	mov	QWORD PTR 16[rbp], rcx
	mov	QWORD PTR 24[rbp], rdx
	mov	QWORD PTR -8[rbp], 0
	mov	rax, QWORD PTR 24[rbp]
	mov	QWORD PTR -16[rbp], rax
	lea	rax, eb_flatten2f[rip]
	mov	QWORD PTR -32[rbp], rax
	lea	r8, -32[rbp]
	lea	rcx, eb_fold[rip]
	mov	rdx, QWORD PTR -16[rbp]
	mov	rax, QWORD PTR -8[rbp]
	mov	r9, r8
	mov	r8, rdx
	mov	rdx, rax
	call	eb_fold
	mov	QWORD PTR -24[rbp], rax
	mov	rax, QWORD PTR -24[rbp]
	add	rsp, 64
	pop	rbp
	ret
	.seh_endproc
	.globl	eb_str_eq1f1f1f
	.def	eb_str_eq1f1f1f;	.scl	2;	.type	32;	.endef
	.seh_proc	eb_str_eq1f1f1f
eb_str_eq1f1f1f:
	push	rbp
	.seh_pushreg	rbp
	mov	rbp, rsp
	.seh_setframe	rbp, 0
	sub	rsp, 80
	.seh_stackalloc	80
	.seh_endprologue
	mov	QWORD PTR 16[rbp], rcx
	mov	rax, QWORD PTR 16[rbp]
	add	rax, 16
	mov	rax, QWORD PTR [rax]
	mov	QWORD PTR -8[rbp], rax
	lea	rcx, eb_cdr[rip]
	mov	rax, QWORD PTR -8[rbp]
	mov	rdx, rax
	call	eb_cdr
	mov	QWORD PTR -16[rbp], rax
	mov	rax, QWORD PTR 16[rbp]
	add	rax, 8
	mov	rax, QWORD PTR [rax]
	mov	QWORD PTR -24[rbp], rax
	lea	rcx, eb_cdr[rip]
	mov	rax, QWORD PTR -24[rbp]
	mov	rdx, rax
	call	eb_cdr
	mov	QWORD PTR -32[rbp], rax
	lea	rcx, eb_str_eq[rip]
	mov	rdx, QWORD PTR -32[rbp]
	mov	rax, QWORD PTR -16[rbp]
	mov	r8, rdx
	mov	rdx, rax
	call	eb_str_eq
	mov	QWORD PTR -40[rbp], rax
	mov	rax, QWORD PTR -40[rbp]
	add	rsp, 80
	pop	rbp
	ret
	.seh_endproc
	.globl	eb_str_eq1f1f
	.def	eb_str_eq1f1f;	.scl	2;	.type	32;	.endef
	.seh_proc	eb_str_eq1f1f
eb_str_eq1f1f:
	push	rbp
	.seh_pushreg	rbp
	mov	rbp, rsp
	.seh_setframe	rbp, 0
	sub	rsp, 112
	.seh_stackalloc	112
	.seh_endprologue
	mov	QWORD PTR 16[rbp], rcx
	mov	rax, QWORD PTR 16[rbp]
	add	rax, 16
	mov	rax, QWORD PTR [rax]
	mov	QWORD PTR -8[rbp], rax
	lea	rcx, eb_car[rip]
	mov	rax, QWORD PTR -8[rbp]
	mov	rdx, rax
	call	eb_car
	mov	QWORD PTR -16[rbp], rax
	mov	rax, QWORD PTR 16[rbp]
	add	rax, 8
	mov	rax, QWORD PTR [rax]
	mov	QWORD PTR -24[rbp], rax
	lea	rcx, eb_car[rip]
	mov	rax, QWORD PTR -24[rbp]
	mov	rdx, rax
	call	eb_car
	mov	QWORD PTR -32[rbp], rax
	lea	rcx, eb_equal[rip]
	mov	rdx, QWORD PTR -32[rbp]
	mov	rax, QWORD PTR -16[rbp]
	mov	r8, rdx
	mov	rdx, rax
	call	eb_equal
	mov	QWORD PTR -40[rbp], rax
	lea	rax, eb_str_eq1f1f1f[rip]
	mov	QWORD PTR -80[rbp], rax
	mov	rax, QWORD PTR 16[rbp]
	add	rax, 8
	mov	rax, QWORD PTR [rax]
	mov	QWORD PTR -72[rbp], rax
	mov	rax, QWORD PTR 16[rbp]
	add	rax, 16
	mov	rax, QWORD PTR [rax]
	mov	QWORD PTR -64[rbp], rax
	lea	rdx, -80[rbp]
	lea	rcx, eb_and[rip]
	mov	rax, QWORD PTR -40[rbp]
	mov	r8, rdx
	mov	rdx, rax
	call	eb_and
	mov	QWORD PTR -48[rbp], rax
	mov	rax, QWORD PTR -48[rbp]
	add	rsp, 112
	pop	rbp
	ret
	.seh_endproc
	.globl	eb_str_eq1f2f
	.def	eb_str_eq1f2f;	.scl	2;	.type	32;	.endef
	.seh_proc	eb_str_eq1f2f
eb_str_eq1f2f:
	push	rbp
	.seh_pushreg	rbp
	mov	rbp, rsp
	.seh_setframe	rbp, 0
	sub	rsp, 16
	.seh_stackalloc	16
	.seh_endprologue
	mov	QWORD PTR 16[rbp], rcx
	mov	QWORD PTR -8[rbp], 0
	mov	rax, QWORD PTR -8[rbp]
	add	rsp, 16
	pop	rbp
	ret
	.seh_endproc
	.globl	eb_str_eq1f
	.def	eb_str_eq1f;	.scl	2;	.type	32;	.endef
	.seh_proc	eb_str_eq1f
eb_str_eq1f:
	push	rbp
	.seh_pushreg	rbp
	mov	rbp, rsp
	.seh_setframe	rbp, 0
	sub	rsp, 96
	.seh_stackalloc	96
	.seh_endprologue
	mov	QWORD PTR 16[rbp], rcx
	mov	rax, QWORD PTR 16[rbp]
	add	rax, 8
	mov	rax, QWORD PTR [rax]
	mov	QWORD PTR -8[rbp], rax
	lea	rax, eb_str_eq1f1f[rip]
	mov	QWORD PTR -48[rbp], rax
	mov	rax, QWORD PTR 16[rbp]
	add	rax, 8
	mov	rax, QWORD PTR [rax]
	mov	QWORD PTR -40[rbp], rax
	mov	rax, QWORD PTR 16[rbp]
	add	rax, 16
	mov	rax, QWORD PTR [rax]
	mov	QWORD PTR -32[rbp], rax
	lea	rax, eb_str_eq1f2f[rip]
	mov	QWORD PTR -56[rbp], rax
	lea	r8, -56[rbp]
	lea	rdx, -48[rbp]
	lea	rcx, eb_if[rip]
	mov	rax, QWORD PTR -8[rbp]
	mov	r9, r8
	mov	r8, rdx
	mov	rdx, rax
	call	eb_if
	mov	QWORD PTR -16[rbp], rax
	mov	rax, QWORD PTR -16[rbp]
	add	rsp, 96
	pop	rbp
	ret
	.seh_endproc
	.globl	eb_str_eq2f1f
	.def	eb_str_eq2f1f;	.scl	2;	.type	32;	.endef
	.seh_proc	eb_str_eq2f1f
eb_str_eq2f1f:
	push	rbp
	.seh_pushreg	rbp
	mov	rbp, rsp
	.seh_setframe	rbp, 0
	sub	rsp, 16
	.seh_stackalloc	16
	.seh_endprologue
	mov	QWORD PTR 16[rbp], rcx
	mov	QWORD PTR -8[rbp], 0
	mov	rax, QWORD PTR -8[rbp]
	add	rsp, 16
	pop	rbp
	ret
	.seh_endproc
	.globl	eb_str_eq2f2f
	.def	eb_str_eq2f2f;	.scl	2;	.type	32;	.endef
	.seh_proc	eb_str_eq2f2f
eb_str_eq2f2f:
	push	rbp
	.seh_pushreg	rbp
	mov	rbp, rsp
	.seh_setframe	rbp, 0
	sub	rsp, 16
	.seh_stackalloc	16
	.seh_endprologue
	mov	QWORD PTR 16[rbp], rcx
	mov	QWORD PTR -8[rbp], 1
	mov	rax, QWORD PTR -8[rbp]
	add	rsp, 16
	pop	rbp
	ret
	.seh_endproc
	.globl	eb_str_eq2f
	.def	eb_str_eq2f;	.scl	2;	.type	32;	.endef
	.seh_proc	eb_str_eq2f
eb_str_eq2f:
	push	rbp
	.seh_pushreg	rbp
	mov	rbp, rsp
	.seh_setframe	rbp, 0
	sub	rsp, 64
	.seh_stackalloc	64
	.seh_endprologue
	mov	QWORD PTR 16[rbp], rcx
	mov	rax, QWORD PTR 16[rbp]
	add	rax, 8
	mov	rax, QWORD PTR [rax]
	mov	QWORD PTR -8[rbp], rax
	lea	rax, eb_str_eq2f1f[rip]
	mov	QWORD PTR -24[rbp], rax
	lea	rax, eb_str_eq2f2f[rip]
	mov	QWORD PTR -32[rbp], rax
	lea	r8, -32[rbp]
	lea	rdx, -24[rbp]
	lea	rcx, eb_if[rip]
	mov	rax, QWORD PTR -8[rbp]
	mov	r9, r8
	mov	r8, rdx
	mov	rdx, rax
	call	eb_if
	mov	QWORD PTR -16[rbp], rax
	mov	rax, QWORD PTR -16[rbp]
	add	rsp, 64
	pop	rbp
	ret
	.seh_endproc
	.globl	eb_str_eq
	.def	eb_str_eq;	.scl	2;	.type	32;	.endef
	.seh_proc	eb_str_eq
eb_str_eq:
	push	rbp
	.seh_pushreg	rbp
	mov	rbp, rsp
	.seh_setframe	rbp, 0
	sub	rsp, 96
	.seh_stackalloc	96
	.seh_endprologue
	mov	QWORD PTR 16[rbp], rcx
	mov	QWORD PTR 24[rbp], rdx
	mov	QWORD PTR 32[rbp], r8
	mov	rax, QWORD PTR 24[rbp]
	mov	QWORD PTR -8[rbp], rax
	lea	rax, eb_str_eq1f[rip]
	mov	QWORD PTR -48[rbp], rax
	mov	rax, QWORD PTR 32[rbp]
	mov	QWORD PTR -40[rbp], rax
	mov	rax, QWORD PTR 24[rbp]
	mov	QWORD PTR -32[rbp], rax
	lea	rax, eb_str_eq2f[rip]
	mov	QWORD PTR -64[rbp], rax
	mov	rax, QWORD PTR 32[rbp]
	mov	QWORD PTR -56[rbp], rax
	lea	r8, -64[rbp]
	lea	rdx, -48[rbp]
	lea	rcx, eb_if[rip]
	mov	rax, QWORD PTR -8[rbp]
	mov	r9, r8
	mov	r8, rdx
	mov	rdx, rax
	call	eb_if
	mov	QWORD PTR -16[rbp], rax
	mov	rax, QWORD PTR -16[rbp]
	add	rsp, 96
	pop	rbp
	ret
	.seh_endproc
	.globl	eb_has_str1f1f
	.def	eb_has_str1f1f;	.scl	2;	.type	32;	.endef
	.seh_proc	eb_has_str1f1f
eb_has_str1f1f:
	push	rbp
	.seh_pushreg	rbp
	mov	rbp, rsp
	.seh_setframe	rbp, 0
	sub	rsp, 64
	.seh_stackalloc	64
	.seh_endprologue
	mov	QWORD PTR 16[rbp], rcx
	mov	rax, QWORD PTR 16[rbp]
	add	rax, 16
	mov	rax, QWORD PTR [rax]
	mov	QWORD PTR -8[rbp], rax
	lea	rcx, eb_cdr[rip]
	mov	rax, QWORD PTR -8[rbp]
	mov	rdx, rax
	call	eb_cdr
	mov	QWORD PTR -16[rbp], rax
	mov	rax, QWORD PTR 16[rbp]
	add	rax, 8
	mov	rax, QWORD PTR [rax]
	mov	QWORD PTR -24[rbp], rax
	lea	rcx, eb_has_str[rip]
	mov	rdx, QWORD PTR -24[rbp]
	mov	rax, QWORD PTR -16[rbp]
	mov	r8, rdx
	mov	rdx, rax
	call	eb_has_str
	mov	QWORD PTR -32[rbp], rax
	mov	rax, QWORD PTR -32[rbp]
	add	rsp, 64
	pop	rbp
	ret
	.seh_endproc
	.globl	eb_has_str1f
	.def	eb_has_str1f;	.scl	2;	.type	32;	.endef
	.seh_proc	eb_has_str1f
eb_has_str1f:
	push	rbp
	.seh_pushreg	rbp
	mov	rbp, rsp
	.seh_setframe	rbp, 0
	sub	rsp, 96
	.seh_stackalloc	96
	.seh_endprologue
	mov	QWORD PTR 16[rbp], rcx
	mov	rax, QWORD PTR 16[rbp]
	add	rax, 8
	mov	rax, QWORD PTR [rax]
	mov	QWORD PTR -8[rbp], rax
	mov	rax, QWORD PTR 16[rbp]
	add	rax, 16
	mov	rax, QWORD PTR [rax]
	mov	QWORD PTR -16[rbp], rax
	lea	rcx, eb_car[rip]
	mov	rax, QWORD PTR -16[rbp]
	mov	rdx, rax
	call	eb_car
	mov	QWORD PTR -24[rbp], rax
	lea	rcx, eb_str_eq[rip]
	mov	rdx, QWORD PTR -24[rbp]
	mov	rax, QWORD PTR -8[rbp]
	mov	r8, rdx
	mov	rdx, rax
	call	eb_str_eq
	mov	QWORD PTR -32[rbp], rax
	lea	rax, eb_has_str1f1f[rip]
	mov	QWORD PTR -64[rbp], rax
	mov	rax, QWORD PTR 16[rbp]
	add	rax, 8
	mov	rax, QWORD PTR [rax]
	mov	QWORD PTR -56[rbp], rax
	mov	rax, QWORD PTR 16[rbp]
	add	rax, 16
	mov	rax, QWORD PTR [rax]
	mov	QWORD PTR -48[rbp], rax
	lea	rdx, -64[rbp]
	lea	rcx, eb_or[rip]
	mov	rax, QWORD PTR -32[rbp]
	mov	r8, rdx
	mov	rdx, rax
	call	eb_or
	mov	QWORD PTR -40[rbp], rax
	mov	rax, QWORD PTR -40[rbp]
	add	rsp, 96
	pop	rbp
	ret
	.seh_endproc
	.globl	eb_has_str
	.def	eb_has_str;	.scl	2;	.type	32;	.endef
	.seh_proc	eb_has_str
eb_has_str:
	push	rbp
	.seh_pushreg	rbp
	mov	rbp, rsp
	.seh_setframe	rbp, 0
	sub	rsp, 80
	.seh_stackalloc	80
	.seh_endprologue
	mov	QWORD PTR 16[rbp], rcx
	mov	QWORD PTR 24[rbp], rdx
	mov	QWORD PTR 32[rbp], r8
	mov	rax, QWORD PTR 24[rbp]
	mov	QWORD PTR -8[rbp], rax
	lea	rax, eb_has_str1f[rip]
	mov	QWORD PTR -48[rbp], rax
	mov	rax, QWORD PTR 32[rbp]
	mov	QWORD PTR -40[rbp], rax
	mov	rax, QWORD PTR 24[rbp]
	mov	QWORD PTR -32[rbp], rax
	lea	rdx, -48[rbp]
	lea	rcx, eb_and[rip]
	mov	rax, QWORD PTR -8[rbp]
	mov	r8, rdx
	mov	rdx, rax
	call	eb_and
	mov	QWORD PTR -16[rbp], rax
	mov	rax, QWORD PTR -16[rbp]
	add	rsp, 80
	pop	rbp
	ret
	.seh_endproc
	.globl	eb_uniq_str_add1f
	.def	eb_uniq_str_add1f;	.scl	2;	.type	32;	.endef
	.seh_proc	eb_uniq_str_add1f
eb_uniq_str_add1f:
	push	rbp
	.seh_pushreg	rbp
	mov	rbp, rsp
	.seh_setframe	rbp, 0
	sub	rsp, 16
	.seh_stackalloc	16
	.seh_endprologue
	mov	QWORD PTR 16[rbp], rcx
	mov	rax, QWORD PTR 16[rbp]
	add	rax, 8
	mov	rax, QWORD PTR [rax]
	mov	QWORD PTR -8[rbp], rax
	mov	rax, QWORD PTR -8[rbp]
	add	rsp, 16
	pop	rbp
	ret
	.seh_endproc
	.globl	eb_uniq_str_add2f
	.def	eb_uniq_str_add2f;	.scl	2;	.type	32;	.endef
	.seh_proc	eb_uniq_str_add2f
eb_uniq_str_add2f:
	push	rbp
	.seh_pushreg	rbp
	mov	rbp, rsp
	.seh_setframe	rbp, 0
	sub	rsp, 64
	.seh_stackalloc	64
	.seh_endprologue
	mov	QWORD PTR 16[rbp], rcx
	mov	rax, QWORD PTR 16[rbp]
	add	rax, 8
	mov	rax, QWORD PTR [rax]
	mov	QWORD PTR -8[rbp], rax
	mov	rax, QWORD PTR 16[rbp]
	add	rax, 16
	mov	rax, QWORD PTR [rax]
	mov	QWORD PTR -16[rbp], rax
	lea	rcx, eb_cons[rip]
	mov	rdx, QWORD PTR -16[rbp]
	mov	rax, QWORD PTR -8[rbp]
	mov	r8, rdx
	mov	rdx, rax
	call	eb_cons
	mov	QWORD PTR -24[rbp], rax
	mov	rax, QWORD PTR -24[rbp]
	add	rsp, 64
	pop	rbp
	ret
	.seh_endproc
	.globl	eb_uniq_str_add
	.def	eb_uniq_str_add;	.scl	2;	.type	32;	.endef
	.seh_proc	eb_uniq_str_add
eb_uniq_str_add:
	push	rbp
	.seh_pushreg	rbp
	mov	rbp, rsp
	.seh_setframe	rbp, 0
	sub	rsp, 112
	.seh_stackalloc	112
	.seh_endprologue
	mov	QWORD PTR 16[rbp], rcx
	mov	QWORD PTR 24[rbp], rdx
	mov	QWORD PTR 32[rbp], r8
	mov	rax, QWORD PTR 24[rbp]
	mov	QWORD PTR -8[rbp], rax
	mov	rax, QWORD PTR 32[rbp]
	mov	QWORD PTR -16[rbp], rax
	lea	rcx, eb_has_str[rip]
	mov	rdx, QWORD PTR -16[rbp]
	mov	rax, QWORD PTR -8[rbp]
	mov	r8, rdx
	mov	rdx, rax
	call	eb_has_str
	mov	QWORD PTR -24[rbp], rax
	lea	rax, eb_uniq_str_add1f[rip]
	mov	QWORD PTR -48[rbp], rax
	mov	rax, QWORD PTR 24[rbp]
	mov	QWORD PTR -40[rbp], rax
	lea	rax, eb_uniq_str_add2f[rip]
	mov	QWORD PTR -80[rbp], rax
	mov	rax, QWORD PTR 32[rbp]
	mov	QWORD PTR -72[rbp], rax
	mov	rax, QWORD PTR 24[rbp]
	mov	QWORD PTR -64[rbp], rax
	lea	r8, -80[rbp]
	lea	rdx, -48[rbp]
	lea	rcx, eb_if[rip]
	mov	rax, QWORD PTR -24[rbp]
	mov	r9, r8
	mov	r8, rdx
	mov	rdx, rax
	call	eb_if
	mov	QWORD PTR -32[rbp], rax
	mov	rax, QWORD PTR -32[rbp]
	add	rsp, 112
	pop	rbp
	ret
	.seh_endproc
	.globl	eb_uniq_str2f
	.def	eb_uniq_str2f;	.scl	2;	.type	32;	.endef
	.seh_proc	eb_uniq_str2f
eb_uniq_str2f:
	push	rbp
	.seh_pushreg	rbp
	mov	rbp, rsp
	.seh_setframe	rbp, 0
	sub	rsp, 64
	.seh_stackalloc	64
	.seh_endprologue
	mov	QWORD PTR 16[rbp], rcx
	mov	QWORD PTR 24[rbp], rdx
	mov	QWORD PTR 32[rbp], r8
	mov	rax, QWORD PTR 24[rbp]
	mov	QWORD PTR -8[rbp], rax
	mov	rax, QWORD PTR 32[rbp]
	mov	QWORD PTR -16[rbp], rax
	lea	rcx, eb_uniq_str_add[rip]
	mov	rdx, QWORD PTR -16[rbp]
	mov	rax, QWORD PTR -8[rbp]
	mov	r8, rdx
	mov	rdx, rax
	call	eb_uniq_str_add
	mov	QWORD PTR -24[rbp], rax
	mov	rax, QWORD PTR -24[rbp]
	add	rsp, 64
	pop	rbp
	ret
	.seh_endproc
	.globl	eb_uniq_str
	.def	eb_uniq_str;	.scl	2;	.type	32;	.endef
	.seh_proc	eb_uniq_str
eb_uniq_str:
	push	rbp
	.seh_pushreg	rbp
	mov	rbp, rsp
	.seh_setframe	rbp, 0
	sub	rsp, 64
	.seh_stackalloc	64
	.seh_endprologue
	mov	QWORD PTR 16[rbp], rcx
	mov	QWORD PTR 24[rbp], rdx
	mov	QWORD PTR -8[rbp], 0
	mov	rax, QWORD PTR 24[rbp]
	mov	QWORD PTR -16[rbp], rax
	lea	rax, eb_uniq_str2f[rip]
	mov	QWORD PTR -32[rbp], rax
	lea	r8, -32[rbp]
	lea	rcx, eb_fold[rip]
	mov	rdx, QWORD PTR -16[rbp]
	mov	rax, QWORD PTR -8[rbp]
	mov	r9, r8
	mov	r8, rdx
	mov	rdx, rax
	call	eb_fold
	mov	QWORD PTR -24[rbp], rax
	mov	rax, QWORD PTR -24[rbp]
	add	rsp, 64
	pop	rbp
	ret
	.seh_endproc
	.globl	eb_num_to_str_nonzero1f
	.def	eb_num_to_str_nonzero1f;	.scl	2;	.type	32;	.endef
	.seh_proc	eb_num_to_str_nonzero1f
eb_num_to_str_nonzero1f:
	push	rbp
	.seh_pushreg	rbp
	mov	rbp, rsp
	.seh_setframe	rbp, 0
	add	rsp, -128
	.seh_stackalloc	128
	.seh_endprologue
	mov	QWORD PTR 16[rbp], rcx
	mov	QWORD PTR -8[rbp], 10
	mov	rax, QWORD PTR 16[rbp]
	add	rax, 8
	mov	rax, QWORD PTR [rax]
	mov	QWORD PTR -16[rbp], rax
	lea	rcx, eb_div[rip]
	mov	rdx, QWORD PTR -16[rbp]
	mov	rax, QWORD PTR -8[rbp]
	mov	r8, rdx
	mov	rdx, rax
	call	eb_div
	mov	QWORD PTR -24[rbp], rax
	lea	rcx, eb_num_to_str_nonzero[rip]
	mov	rax, QWORD PTR -24[rbp]
	mov	rdx, rax
	call	eb_num_to_str_nonzero
	mov	QWORD PTR -32[rbp], rax
	mov	QWORD PTR -40[rbp], 48
	mov	QWORD PTR -48[rbp], 10
	mov	rax, QWORD PTR 16[rbp]
	add	rax, 8
	mov	rax, QWORD PTR [rax]
	mov	QWORD PTR -56[rbp], rax
	lea	rcx, eb_mod[rip]
	mov	rdx, QWORD PTR -56[rbp]
	mov	rax, QWORD PTR -48[rbp]
	mov	r8, rdx
	mov	rdx, rax
	call	eb_mod
	mov	QWORD PTR -64[rbp], rax
	lea	rcx, eb_add[rip]
	mov	rdx, QWORD PTR -64[rbp]
	mov	rax, QWORD PTR -40[rbp]
	mov	r8, rdx
	mov	rdx, rax
	call	eb_add
	mov	QWORD PTR -72[rbp], rax
	mov	QWORD PTR -80[rbp], 0
	lea	rcx, eb_cons[rip]
	mov	rdx, QWORD PTR -80[rbp]
	mov	rax, QWORD PTR -72[rbp]
	mov	r8, rdx
	mov	rdx, rax
	call	eb_cons
	mov	QWORD PTR -88[rbp], rax
	lea	rcx, eb_concat[rip]
	mov	rdx, QWORD PTR -88[rbp]
	mov	rax, QWORD PTR -32[rbp]
	mov	r8, rdx
	mov	rdx, rax
	call	eb_concat
	mov	QWORD PTR -96[rbp], rax
	mov	rax, QWORD PTR -96[rbp]
	sub	rsp, -128
	pop	rbp
	ret
	.seh_endproc
	.globl	eb_num_to_str_nonzero
	.def	eb_num_to_str_nonzero;	.scl	2;	.type	32;	.endef
	.seh_proc	eb_num_to_str_nonzero
eb_num_to_str_nonzero:
	push	rbp
	.seh_pushreg	rbp
	mov	rbp, rsp
	.seh_setframe	rbp, 0
	sub	rsp, 80
	.seh_stackalloc	80
	.seh_endprologue
	mov	QWORD PTR 16[rbp], rcx
	mov	QWORD PTR 24[rbp], rdx
	mov	QWORD PTR -8[rbp], 0
	mov	rax, QWORD PTR 24[rbp]
	mov	QWORD PTR -16[rbp], rax
	lea	rcx, eb_equal[rip]
	mov	rdx, QWORD PTR -16[rbp]
	mov	rax, QWORD PTR -8[rbp]
	mov	r8, rdx
	mov	rdx, rax
	call	eb_equal
	mov	QWORD PTR -24[rbp], rax
	lea	rax, eb_num_to_str_nonzero1f[rip]
	mov	QWORD PTR -48[rbp], rax
	mov	rax, QWORD PTR 24[rbp]
	mov	QWORD PTR -40[rbp], rax
	lea	rdx, -48[rbp]
	lea	rcx, eb_or[rip]
	mov	rax, QWORD PTR -24[rbp]
	mov	r8, rdx
	mov	rdx, rax
	call	eb_or
	mov	QWORD PTR -32[rbp], rax
	mov	rax, QWORD PTR -32[rbp]
	add	rsp, 80
	pop	rbp
	ret
	.seh_endproc
	.globl	eb_num_to_str1f
	.def	eb_num_to_str1f;	.scl	2;	.type	32;	.endef
	.seh_proc	eb_num_to_str1f
eb_num_to_str1f:
	push	rbp
	.seh_pushreg	rbp
	mov	rbp, rsp
	.seh_setframe	rbp, 0
	sub	rsp, 48
	.seh_stackalloc	48
	.seh_endprologue
	mov	QWORD PTR 16[rbp], rcx
	mov	rax, QWORD PTR 16[rbp]
	add	rax, 8
	mov	rax, QWORD PTR [rax]
	mov	QWORD PTR -8[rbp], rax
	lea	rcx, eb_num_to_str_nonzero[rip]
	mov	rax, QWORD PTR -8[rbp]
	mov	rdx, rax
	call	eb_num_to_str_nonzero
	mov	QWORD PTR -16[rbp], rax
	mov	rax, QWORD PTR -16[rbp]
	add	rsp, 48
	pop	rbp
	ret
	.seh_endproc
	.section .rdata,"dr"
.LC2:
	.ascii "0\0"
	.text
	.globl	eb_num_to_str2f
	.def	eb_num_to_str2f;	.scl	2;	.type	32;	.endef
	.seh_proc	eb_num_to_str2f
eb_num_to_str2f:
	push	rbp
	.seh_pushreg	rbp
	mov	rbp, rsp
	.seh_setframe	rbp, 0
	sub	rsp, 32
	.seh_stackalloc	32
	.seh_endprologue
	mov	QWORD PTR 16[rbp], rcx
	lea	rax, .LC2[rip]
	mov	rdx, rax
	lea	rax, eb_num_to_str2f.87[rip]
	mov	rcx, rax
	call	ebz_stol
	mov	rax, QWORD PTR eb_num_to_str2f.87[rip]
	add	rsp, 32
	pop	rbp
	ret
	.seh_endproc
	.globl	eb_num_to_str
	.def	eb_num_to_str;	.scl	2;	.type	32;	.endef
	.seh_proc	eb_num_to_str
eb_num_to_str:
	push	rbp
	.seh_pushreg	rbp
	mov	rbp, rsp
	.seh_setframe	rbp, 0
	sub	rsp, 80
	.seh_stackalloc	80
	.seh_endprologue
	mov	QWORD PTR 16[rbp], rcx
	mov	QWORD PTR 24[rbp], rdx
	mov	rax, QWORD PTR 24[rbp]
	mov	QWORD PTR -8[rbp], rax
	lea	rax, eb_num_to_str1f[rip]
	mov	QWORD PTR -32[rbp], rax
	mov	rax, QWORD PTR 24[rbp]
	mov	QWORD PTR -24[rbp], rax
	lea	rax, eb_num_to_str2f[rip]
	mov	QWORD PTR -40[rbp], rax
	lea	r8, -40[rbp]
	lea	rdx, -32[rbp]
	lea	rcx, eb_if[rip]
	mov	rax, QWORD PTR -8[rbp]
	mov	r9, r8
	mov	r8, rdx
	mov	rdx, rax
	call	eb_if
	mov	QWORD PTR -16[rbp], rax
	mov	rax, QWORD PTR -16[rbp]
	add	rsp, 80
	pop	rbp
	ret
	.seh_endproc
	.globl	eb_rstr_to_num1f
	.def	eb_rstr_to_num1f;	.scl	2;	.type	32;	.endef
	.seh_proc	eb_rstr_to_num1f
eb_rstr_to_num1f:
	push	rbp
	.seh_pushreg	rbp
	mov	rbp, rsp
	.seh_setframe	rbp, 0
	sub	rsp, 112
	.seh_stackalloc	112
	.seh_endprologue
	mov	QWORD PTR 16[rbp], rcx
	mov	QWORD PTR -8[rbp], 10
	mov	rax, QWORD PTR 16[rbp]
	add	rax, 8
	mov	rax, QWORD PTR [rax]
	mov	QWORD PTR -16[rbp], rax
	lea	rcx, eb_cdr[rip]
	mov	rax, QWORD PTR -16[rbp]
	mov	rdx, rax
	call	eb_cdr
	mov	QWORD PTR -24[rbp], rax
	lea	rcx, eb_rstr_to_num[rip]
	mov	rax, QWORD PTR -24[rbp]
	mov	rdx, rax
	call	eb_rstr_to_num
	mov	QWORD PTR -32[rbp], rax
	lea	rcx, eb_mul[rip]
	mov	rdx, QWORD PTR -32[rbp]
	mov	rax, QWORD PTR -8[rbp]
	mov	r8, rdx
	mov	rdx, rax
	call	eb_mul
	mov	QWORD PTR -40[rbp], rax
	mov	QWORD PTR -48[rbp], 48
	mov	rax, QWORD PTR 16[rbp]
	add	rax, 8
	mov	rax, QWORD PTR [rax]
	mov	QWORD PTR -56[rbp], rax
	lea	rcx, eb_car[rip]
	mov	rax, QWORD PTR -56[rbp]
	mov	rdx, rax
	call	eb_car
	mov	QWORD PTR -64[rbp], rax
	lea	rcx, eb_sub[rip]
	mov	rdx, QWORD PTR -64[rbp]
	mov	rax, QWORD PTR -48[rbp]
	mov	r8, rdx
	mov	rdx, rax
	call	eb_sub
	mov	QWORD PTR -72[rbp], rax
	lea	rcx, eb_add[rip]
	mov	rdx, QWORD PTR -72[rbp]
	mov	rax, QWORD PTR -40[rbp]
	mov	r8, rdx
	mov	rdx, rax
	call	eb_add
	mov	QWORD PTR -80[rbp], rax
	mov	rax, QWORD PTR -80[rbp]
	add	rsp, 112
	pop	rbp
	ret
	.seh_endproc
	.globl	eb_rstr_to_num
	.def	eb_rstr_to_num;	.scl	2;	.type	32;	.endef
	.seh_proc	eb_rstr_to_num
eb_rstr_to_num:
	push	rbp
	.seh_pushreg	rbp
	mov	rbp, rsp
	.seh_setframe	rbp, 0
	sub	rsp, 64
	.seh_stackalloc	64
	.seh_endprologue
	mov	QWORD PTR 16[rbp], rcx
	mov	QWORD PTR 24[rbp], rdx
	mov	rax, QWORD PTR 24[rbp]
	mov	QWORD PTR -8[rbp], rax
	lea	rax, eb_rstr_to_num1f[rip]
	mov	QWORD PTR -32[rbp], rax
	mov	rax, QWORD PTR 24[rbp]
	mov	QWORD PTR -24[rbp], rax
	lea	rdx, -32[rbp]
	lea	rcx, eb_and[rip]
	mov	rax, QWORD PTR -8[rbp]
	mov	r8, rdx
	mov	rdx, rax
	call	eb_and
	mov	QWORD PTR -16[rbp], rax
	mov	rax, QWORD PTR -16[rbp]
	add	rsp, 64
	pop	rbp
	ret
	.seh_endproc
	.globl	eb_str_to_num
	.def	eb_str_to_num;	.scl	2;	.type	32;	.endef
	.seh_proc	eb_str_to_num
eb_str_to_num:
	push	rbp
	.seh_pushreg	rbp
	mov	rbp, rsp
	.seh_setframe	rbp, 0
	sub	rsp, 64
	.seh_stackalloc	64
	.seh_endprologue
	mov	QWORD PTR 16[rbp], rcx
	mov	QWORD PTR 24[rbp], rdx
	mov	rax, QWORD PTR 24[rbp]
	mov	QWORD PTR -8[rbp], rax
	lea	rcx, eb_reverse[rip]
	mov	rax, QWORD PTR -8[rbp]
	mov	rdx, rax
	call	eb_reverse
	mov	QWORD PTR -16[rbp], rax
	lea	rcx, eb_rstr_to_num[rip]
	mov	rax, QWORD PTR -16[rbp]
	mov	rdx, rax
	call	eb_rstr_to_num
	mov	QWORD PTR -24[rbp], rax
	mov	rax, QWORD PTR -24[rbp]
	add	rsp, 64
	pop	rbp
	ret
	.seh_endproc
	.globl	eb_error_from_str
	.def	eb_error_from_str;	.scl	2;	.type	32;	.endef
	.seh_proc	eb_error_from_str
eb_error_from_str:
	push	rbp
	.seh_pushreg	rbp
	mov	rbp, rsp
	.seh_setframe	rbp, 0
	sub	rsp, 64
	.seh_stackalloc	64
	.seh_endprologue
	mov	QWORD PTR 16[rbp], rcx
	mov	QWORD PTR 24[rbp], rdx
	mov	QWORD PTR -8[rbp], 0
	mov	rax, QWORD PTR 24[rbp]
	mov	QWORD PTR -16[rbp], rax
	lea	rcx, eb_cons[rip]
	mov	rdx, QWORD PTR -16[rbp]
	mov	rax, QWORD PTR -8[rbp]
	mov	r8, rdx
	mov	rdx, rax
	call	eb_cons
	mov	QWORD PTR -24[rbp], rax
	mov	rax, QWORD PTR -24[rbp]
	add	rsp, 64
	pop	rbp
	ret
	.seh_endproc
	.globl	eb_error_from_both
	.def	eb_error_from_both;	.scl	2;	.type	32;	.endef
	.seh_proc	eb_error_from_both
eb_error_from_both:
	push	rbp
	.seh_pushreg	rbp
	mov	rbp, rsp
	.seh_setframe	rbp, 0
	sub	rsp, 80
	.seh_stackalloc	80
	.seh_endprologue
	mov	QWORD PTR 16[rbp], rcx
	mov	QWORD PTR 24[rbp], rdx
	mov	QWORD PTR 32[rbp], r8
	mov	QWORD PTR -8[rbp], 1
	mov	rax, QWORD PTR 24[rbp]
	mov	QWORD PTR -16[rbp], rax
	mov	rax, QWORD PTR 32[rbp]
	mov	QWORD PTR -24[rbp], rax
	lea	rcx, eb_cons[rip]
	mov	rdx, QWORD PTR -24[rbp]
	mov	rax, QWORD PTR -16[rbp]
	mov	r8, rdx
	mov	rdx, rax
	call	eb_cons
	mov	QWORD PTR -32[rbp], rax
	lea	rcx, eb_cons[rip]
	mov	rdx, QWORD PTR -32[rbp]
	mov	rax, QWORD PTR -8[rbp]
	mov	r8, rdx
	mov	rdx, rax
	call	eb_cons
	mov	QWORD PTR -40[rbp], rax
	mov	rax, QWORD PTR -40[rbp]
	add	rsp, 80
	pop	rbp
	ret
	.seh_endproc
	.globl	eb_error_from_wanted
	.def	eb_error_from_wanted;	.scl	2;	.type	32;	.endef
	.seh_proc	eb_error_from_wanted
eb_error_from_wanted:
	push	rbp
	.seh_pushreg	rbp
	mov	rbp, rsp
	.seh_setframe	rbp, 0
	sub	rsp, 64
	.seh_stackalloc	64
	.seh_endprologue
	mov	QWORD PTR 16[rbp], rcx
	mov	QWORD PTR 24[rbp], rdx
	mov	QWORD PTR -8[rbp], 2
	mov	rax, QWORD PTR 24[rbp]
	mov	QWORD PTR -16[rbp], rax
	lea	rcx, eb_cons[rip]
	mov	rdx, QWORD PTR -16[rbp]
	mov	rax, QWORD PTR -8[rbp]
	mov	r8, rdx
	mov	rdx, rax
	call	eb_cons
	mov	QWORD PTR -24[rbp], rax
	mov	rax, QWORD PTR -24[rbp]
	add	rsp, 64
	pop	rbp
	ret
	.seh_endproc
	.globl	eb_error_from_got
	.def	eb_error_from_got;	.scl	2;	.type	32;	.endef
	.seh_proc	eb_error_from_got
eb_error_from_got:
	push	rbp
	.seh_pushreg	rbp
	mov	rbp, rsp
	.seh_setframe	rbp, 0
	sub	rsp, 64
	.seh_stackalloc	64
	.seh_endprologue
	mov	QWORD PTR 16[rbp], rcx
	mov	QWORD PTR 24[rbp], rdx
	mov	QWORD PTR -8[rbp], 3
	mov	rax, QWORD PTR 24[rbp]
	mov	QWORD PTR -16[rbp], rax
	lea	rcx, eb_cons[rip]
	mov	rdx, QWORD PTR -16[rbp]
	mov	rax, QWORD PTR -8[rbp]
	mov	r8, rdx
	mov	rdx, rax
	call	eb_cons
	mov	QWORD PTR -24[rbp], rax
	mov	rax, QWORD PTR -24[rbp]
	add	rsp, 64
	pop	rbp
	ret
	.seh_endproc
	.globl	eb_error_from_position
	.def	eb_error_from_position;	.scl	2;	.type	32;	.endef
	.seh_proc	eb_error_from_position
eb_error_from_position:
	push	rbp
	.seh_pushreg	rbp
	mov	rbp, rsp
	.seh_setframe	rbp, 0
	sub	rsp, 80
	.seh_stackalloc	80
	.seh_endprologue
	mov	QWORD PTR 16[rbp], rcx
	mov	QWORD PTR 24[rbp], rdx
	mov	QWORD PTR 32[rbp], r8
	mov	QWORD PTR -8[rbp], 4
	mov	rax, QWORD PTR 24[rbp]
	mov	QWORD PTR -16[rbp], rax
	mov	rax, QWORD PTR 32[rbp]
	mov	QWORD PTR -24[rbp], rax
	lea	rcx, eb_cons[rip]
	mov	rdx, QWORD PTR -24[rbp]
	mov	rax, QWORD PTR -16[rbp]
	mov	r8, rdx
	mov	rdx, rax
	call	eb_cons
	mov	QWORD PTR -32[rbp], rax
	lea	rcx, eb_cons[rip]
	mov	rdx, QWORD PTR -32[rbp]
	mov	rax, QWORD PTR -8[rbp]
	mov	r8, rdx
	mov	rdx, rax
	call	eb_cons
	mov	QWORD PTR -40[rbp], rax
	mov	rax, QWORD PTR -40[rbp]
	add	rsp, 80
	pop	rbp
	ret
	.seh_endproc
	.globl	eb_error_from_char
	.def	eb_error_from_char;	.scl	2;	.type	32;	.endef
	.seh_proc	eb_error_from_char
eb_error_from_char:
	push	rbp
	.seh_pushreg	rbp
	mov	rbp, rsp
	.seh_setframe	rbp, 0
	sub	rsp, 64
	.seh_stackalloc	64
	.seh_endprologue
	mov	QWORD PTR 16[rbp], rcx
	mov	QWORD PTR 24[rbp], rdx
	mov	QWORD PTR -8[rbp], 5
	mov	rax, QWORD PTR 24[rbp]
	mov	QWORD PTR -16[rbp], rax
	lea	rcx, eb_cons[rip]
	mov	rdx, QWORD PTR -16[rbp]
	mov	rax, QWORD PTR -8[rbp]
	mov	r8, rdx
	mov	rdx, rax
	call	eb_cons
	mov	QWORD PTR -24[rbp], rax
	mov	rax, QWORD PTR -24[rbp]
	add	rsp, 64
	pop	rbp
	ret
	.seh_endproc
	.globl	eb_error_is_str
	.def	eb_error_is_str;	.scl	2;	.type	32;	.endef
	.seh_proc	eb_error_is_str
eb_error_is_str:
	push	rbp
	.seh_pushreg	rbp
	mov	rbp, rsp
	.seh_setframe	rbp, 0
	sub	rsp, 64
	.seh_stackalloc	64
	.seh_endprologue
	mov	QWORD PTR 16[rbp], rcx
	mov	QWORD PTR 24[rbp], rdx
	mov	QWORD PTR -8[rbp], 0
	mov	rax, QWORD PTR 24[rbp]
	mov	QWORD PTR -16[rbp], rax
	lea	rcx, eb_car[rip]
	mov	rax, QWORD PTR -16[rbp]
	mov	rdx, rax
	call	eb_car
	mov	QWORD PTR -24[rbp], rax
	lea	rcx, eb_equal[rip]
	mov	rdx, QWORD PTR -24[rbp]
	mov	rax, QWORD PTR -8[rbp]
	mov	r8, rdx
	mov	rdx, rax
	call	eb_equal
	mov	QWORD PTR -32[rbp], rax
	mov	rax, QWORD PTR -32[rbp]
	add	rsp, 64
	pop	rbp
	ret
	.seh_endproc
	.globl	eb_error_is_both
	.def	eb_error_is_both;	.scl	2;	.type	32;	.endef
	.seh_proc	eb_error_is_both
eb_error_is_both:
	push	rbp
	.seh_pushreg	rbp
	mov	rbp, rsp
	.seh_setframe	rbp, 0
	sub	rsp, 64
	.seh_stackalloc	64
	.seh_endprologue
	mov	QWORD PTR 16[rbp], rcx
	mov	QWORD PTR 24[rbp], rdx
	mov	QWORD PTR -8[rbp], 1
	mov	rax, QWORD PTR 24[rbp]
	mov	QWORD PTR -16[rbp], rax
	lea	rcx, eb_car[rip]
	mov	rax, QWORD PTR -16[rbp]
	mov	rdx, rax
	call	eb_car
	mov	QWORD PTR -24[rbp], rax
	lea	rcx, eb_equal[rip]
	mov	rdx, QWORD PTR -24[rbp]
	mov	rax, QWORD PTR -8[rbp]
	mov	r8, rdx
	mov	rdx, rax
	call	eb_equal
	mov	QWORD PTR -32[rbp], rax
	mov	rax, QWORD PTR -32[rbp]
	add	rsp, 64
	pop	rbp
	ret
	.seh_endproc
	.globl	eb_error_is_wanted
	.def	eb_error_is_wanted;	.scl	2;	.type	32;	.endef
	.seh_proc	eb_error_is_wanted
eb_error_is_wanted:
	push	rbp
	.seh_pushreg	rbp
	mov	rbp, rsp
	.seh_setframe	rbp, 0
	sub	rsp, 64
	.seh_stackalloc	64
	.seh_endprologue
	mov	QWORD PTR 16[rbp], rcx
	mov	QWORD PTR 24[rbp], rdx
	mov	QWORD PTR -8[rbp], 2
	mov	rax, QWORD PTR 24[rbp]
	mov	QWORD PTR -16[rbp], rax
	lea	rcx, eb_car[rip]
	mov	rax, QWORD PTR -16[rbp]
	mov	rdx, rax
	call	eb_car
	mov	QWORD PTR -24[rbp], rax
	lea	rcx, eb_equal[rip]
	mov	rdx, QWORD PTR -24[rbp]
	mov	rax, QWORD PTR -8[rbp]
	mov	r8, rdx
	mov	rdx, rax
	call	eb_equal
	mov	QWORD PTR -32[rbp], rax
	mov	rax, QWORD PTR -32[rbp]
	add	rsp, 64
	pop	rbp
	ret
	.seh_endproc
	.globl	eb_error_is_got
	.def	eb_error_is_got;	.scl	2;	.type	32;	.endef
	.seh_proc	eb_error_is_got
eb_error_is_got:
	push	rbp
	.seh_pushreg	rbp
	mov	rbp, rsp
	.seh_setframe	rbp, 0
	sub	rsp, 64
	.seh_stackalloc	64
	.seh_endprologue
	mov	QWORD PTR 16[rbp], rcx
	mov	QWORD PTR 24[rbp], rdx
	mov	QWORD PTR -8[rbp], 3
	mov	rax, QWORD PTR 24[rbp]
	mov	QWORD PTR -16[rbp], rax
	lea	rcx, eb_car[rip]
	mov	rax, QWORD PTR -16[rbp]
	mov	rdx, rax
	call	eb_car
	mov	QWORD PTR -24[rbp], rax
	lea	rcx, eb_equal[rip]
	mov	rdx, QWORD PTR -24[rbp]
	mov	rax, QWORD PTR -8[rbp]
	mov	r8, rdx
	mov	rdx, rax
	call	eb_equal
	mov	QWORD PTR -32[rbp], rax
	mov	rax, QWORD PTR -32[rbp]
	add	rsp, 64
	pop	rbp
	ret
	.seh_endproc
	.globl	eb_error_is_position
	.def	eb_error_is_position;	.scl	2;	.type	32;	.endef
	.seh_proc	eb_error_is_position
eb_error_is_position:
	push	rbp
	.seh_pushreg	rbp
	mov	rbp, rsp
	.seh_setframe	rbp, 0
	sub	rsp, 64
	.seh_stackalloc	64
	.seh_endprologue
	mov	QWORD PTR 16[rbp], rcx
	mov	QWORD PTR 24[rbp], rdx
	mov	QWORD PTR -8[rbp], 4
	mov	rax, QWORD PTR 24[rbp]
	mov	QWORD PTR -16[rbp], rax
	lea	rcx, eb_car[rip]
	mov	rax, QWORD PTR -16[rbp]
	mov	rdx, rax
	call	eb_car
	mov	QWORD PTR -24[rbp], rax
	lea	rcx, eb_equal[rip]
	mov	rdx, QWORD PTR -24[rbp]
	mov	rax, QWORD PTR -8[rbp]
	mov	r8, rdx
	mov	rdx, rax
	call	eb_equal
	mov	QWORD PTR -32[rbp], rax
	mov	rax, QWORD PTR -32[rbp]
	add	rsp, 64
	pop	rbp
	ret
	.seh_endproc
	.globl	eb_error_is_char
	.def	eb_error_is_char;	.scl	2;	.type	32;	.endef
	.seh_proc	eb_error_is_char
eb_error_is_char:
	push	rbp
	.seh_pushreg	rbp
	mov	rbp, rsp
	.seh_setframe	rbp, 0
	sub	rsp, 64
	.seh_stackalloc	64
	.seh_endprologue
	mov	QWORD PTR 16[rbp], rcx
	mov	QWORD PTR 24[rbp], rdx
	mov	QWORD PTR -8[rbp], 5
	mov	rax, QWORD PTR 24[rbp]
	mov	QWORD PTR -16[rbp], rax
	lea	rcx, eb_car[rip]
	mov	rax, QWORD PTR -16[rbp]
	mov	rdx, rax
	call	eb_car
	mov	QWORD PTR -24[rbp], rax
	lea	rcx, eb_equal[rip]
	mov	rdx, QWORD PTR -24[rbp]
	mov	rax, QWORD PTR -8[rbp]
	mov	r8, rdx
	mov	rdx, rax
	call	eb_equal
	mov	QWORD PTR -32[rbp], rax
	mov	rax, QWORD PTR -32[rbp]
	add	rsp, 64
	pop	rbp
	ret
	.seh_endproc
	.section .rdata,"dr"
.LC3:
	.ascii "newline\0"
	.text
	.globl	eb_put_error_body1f1f
	.def	eb_put_error_body1f1f;	.scl	2;	.type	32;	.endef
	.seh_proc	eb_put_error_body1f1f
eb_put_error_body1f1f:
	push	rbp
	.seh_pushreg	rbp
	mov	rbp, rsp
	.seh_setframe	rbp, 0
	sub	rsp, 48
	.seh_stackalloc	48
	.seh_endprologue
	mov	QWORD PTR 16[rbp], rcx
	lea	rax, .LC3[rip]
	mov	rdx, rax
	lea	rax, eb_put_error_body1f1f0.86[rip]
	mov	rcx, rax
	call	ebz_stol
	mov	rax, QWORD PTR eb_put_error_body1f1f0.86[rip]
	lea	rcx, eb_put_str[rip]
	mov	rdx, rax
	call	eb_put_str
	mov	QWORD PTR -8[rbp], rax
	mov	rax, QWORD PTR -8[rbp]
	add	rsp, 48
	pop	rbp
	ret
	.seh_endproc
	.section .rdata,"dr"
.LC4:
	.ascii "space\0"
	.text
	.globl	eb_put_error_body1f2f1f
	.def	eb_put_error_body1f2f1f;	.scl	2;	.type	32;	.endef
	.seh_proc	eb_put_error_body1f2f1f
eb_put_error_body1f2f1f:
	push	rbp
	.seh_pushreg	rbp
	mov	rbp, rsp
	.seh_setframe	rbp, 0
	sub	rsp, 48
	.seh_stackalloc	48
	.seh_endprologue
	mov	QWORD PTR 16[rbp], rcx
	lea	rax, .LC4[rip]
	mov	rdx, rax
	lea	rax, eb_put_error_body1f2f1f0.85[rip]
	mov	rcx, rax
	call	ebz_stol
	mov	rax, QWORD PTR eb_put_error_body1f2f1f0.85[rip]
	lea	rcx, eb_put_str[rip]
	mov	rdx, rax
	call	eb_put_str
	mov	QWORD PTR -8[rbp], rax
	mov	rax, QWORD PTR -8[rbp]
	add	rsp, 48
	pop	rbp
	ret
	.seh_endproc
	.section .rdata,"dr"
.LC5:
	.ascii "signle quote\0"
	.text
	.globl	eb_put_error_body1f2f2f1f
	.def	eb_put_error_body1f2f2f1f;	.scl	2;	.type	32;	.endef
	.seh_proc	eb_put_error_body1f2f2f1f
eb_put_error_body1f2f2f1f:
	push	rbp
	.seh_pushreg	rbp
	mov	rbp, rsp
	.seh_setframe	rbp, 0
	sub	rsp, 48
	.seh_stackalloc	48
	.seh_endprologue
	mov	QWORD PTR 16[rbp], rcx
	lea	rax, .LC5[rip]
	mov	rdx, rax
	lea	rax, eb_put_error_body1f2f2f1f0.84[rip]
	mov	rcx, rax
	call	ebz_stol
	mov	rax, QWORD PTR eb_put_error_body1f2f2f1f0.84[rip]
	lea	rcx, eb_put_str[rip]
	mov	rdx, rax
	call	eb_put_str
	mov	QWORD PTR -8[rbp], rax
	mov	rax, QWORD PTR -8[rbp]
	add	rsp, 48
	pop	rbp
	ret
	.seh_endproc
	.globl	eb_put_error_body1f2f2f2f
	.def	eb_put_error_body1f2f2f2f;	.scl	2;	.type	32;	.endef
	.seh_proc	eb_put_error_body1f2f2f2f
eb_put_error_body1f2f2f2f:
	push	rbp
	.seh_pushreg	rbp
	mov	rbp, rsp
	.seh_setframe	rbp, 0
	sub	rsp, 112
	.seh_stackalloc	112
	.seh_endprologue
	mov	QWORD PTR 16[rbp], rcx
	mov	QWORD PTR -8[rbp], 39
	lea	rcx, eb_putchar[rip]
	mov	rax, QWORD PTR -8[rbp]
	mov	rdx, rax
	call	eb_putchar
	mov	QWORD PTR -16[rbp], rax
	mov	rax, QWORD PTR 16[rbp]
	add	rax, 8
	mov	rax, QWORD PTR [rax]
	mov	QWORD PTR -24[rbp], rax
	lea	rcx, eb_cdr[rip]
	mov	rax, QWORD PTR -24[rbp]
	mov	rdx, rax
	call	eb_cdr
	mov	QWORD PTR -32[rbp], rax
	lea	rcx, eb_putchar[rip]
	mov	rax, QWORD PTR -32[rbp]
	mov	rdx, rax
	call	eb_putchar
	mov	QWORD PTR -40[rbp], rax
	mov	QWORD PTR -48[rbp], 39
	lea	rcx, eb_putchar[rip]
	mov	rax, QWORD PTR -48[rbp]
	mov	rdx, rax
	call	eb_putchar
	mov	QWORD PTR -56[rbp], rax
	lea	rcx, eb_do[rip]
	mov	rdx, QWORD PTR -56[rbp]
	mov	rax, QWORD PTR -40[rbp]
	mov	r8, rdx
	mov	rdx, rax
	call	eb_do
	mov	QWORD PTR -64[rbp], rax
	lea	rcx, eb_do[rip]
	mov	rdx, QWORD PTR -64[rbp]
	mov	rax, QWORD PTR -16[rbp]
	mov	r8, rdx
	mov	rdx, rax
	call	eb_do
	mov	QWORD PTR -72[rbp], rax
	mov	rax, QWORD PTR -72[rbp]
	add	rsp, 112
	pop	rbp
	ret
	.seh_endproc
	.globl	eb_put_error_body1f2f2f
	.def	eb_put_error_body1f2f2f;	.scl	2;	.type	32;	.endef
	.seh_proc	eb_put_error_body1f2f2f
eb_put_error_body1f2f2f:
	push	rbp
	.seh_pushreg	rbp
	mov	rbp, rsp
	.seh_setframe	rbp, 0
	sub	rsp, 96
	.seh_stackalloc	96
	.seh_endprologue
	mov	QWORD PTR 16[rbp], rcx
	mov	QWORD PTR -8[rbp], 39
	mov	rax, QWORD PTR 16[rbp]
	add	rax, 8
	mov	rax, QWORD PTR [rax]
	mov	QWORD PTR -16[rbp], rax
	lea	rcx, eb_cdr[rip]
	mov	rax, QWORD PTR -16[rbp]
	mov	rdx, rax
	call	eb_cdr
	mov	QWORD PTR -24[rbp], rax
	lea	rcx, eb_equal[rip]
	mov	rdx, QWORD PTR -24[rbp]
	mov	rax, QWORD PTR -8[rbp]
	mov	r8, rdx
	mov	rdx, rax
	call	eb_equal
	mov	QWORD PTR -32[rbp], rax
	lea	rax, eb_put_error_body1f2f2f1f[rip]
	mov	QWORD PTR -48[rbp], rax
	lea	rax, eb_put_error_body1f2f2f2f[rip]
	mov	QWORD PTR -64[rbp], rax
	mov	rax, QWORD PTR 16[rbp]
	add	rax, 8
	mov	rax, QWORD PTR [rax]
	mov	QWORD PTR -56[rbp], rax
	lea	r8, -64[rbp]
	lea	rdx, -48[rbp]
	lea	rcx, eb_if[rip]
	mov	rax, QWORD PTR -32[rbp]
	mov	r9, r8
	mov	r8, rdx
	mov	rdx, rax
	call	eb_if
	mov	QWORD PTR -40[rbp], rax
	mov	rax, QWORD PTR -40[rbp]
	add	rsp, 96
	pop	rbp
	ret
	.seh_endproc
	.globl	eb_put_error_body1f2f
	.def	eb_put_error_body1f2f;	.scl	2;	.type	32;	.endef
	.seh_proc	eb_put_error_body1f2f
eb_put_error_body1f2f:
	push	rbp
	.seh_pushreg	rbp
	mov	rbp, rsp
	.seh_setframe	rbp, 0
	sub	rsp, 96
	.seh_stackalloc	96
	.seh_endprologue
	mov	QWORD PTR 16[rbp], rcx
	mov	QWORD PTR -8[rbp], 32
	mov	rax, QWORD PTR 16[rbp]
	add	rax, 8
	mov	rax, QWORD PTR [rax]
	mov	QWORD PTR -16[rbp], rax
	lea	rcx, eb_cdr[rip]
	mov	rax, QWORD PTR -16[rbp]
	mov	rdx, rax
	call	eb_cdr
	mov	QWORD PTR -24[rbp], rax
	lea	rcx, eb_equal[rip]
	mov	rdx, QWORD PTR -24[rbp]
	mov	rax, QWORD PTR -8[rbp]
	mov	r8, rdx
	mov	rdx, rax
	call	eb_equal
	mov	QWORD PTR -32[rbp], rax
	lea	rax, eb_put_error_body1f2f1f[rip]
	mov	QWORD PTR -48[rbp], rax
	lea	rax, eb_put_error_body1f2f2f[rip]
	mov	QWORD PTR -64[rbp], rax
	mov	rax, QWORD PTR 16[rbp]
	add	rax, 8
	mov	rax, QWORD PTR [rax]
	mov	QWORD PTR -56[rbp], rax
	lea	r8, -64[rbp]
	lea	rdx, -48[rbp]
	lea	rcx, eb_if[rip]
	mov	rax, QWORD PTR -32[rbp]
	mov	r9, r8
	mov	r8, rdx
	mov	rdx, rax
	call	eb_if
	mov	QWORD PTR -40[rbp], rax
	mov	rax, QWORD PTR -40[rbp]
	add	rsp, 96
	pop	rbp
	ret
	.seh_endproc
	.globl	eb_put_error_body1f
	.def	eb_put_error_body1f;	.scl	2;	.type	32;	.endef
	.seh_proc	eb_put_error_body1f
eb_put_error_body1f:
	push	rbp
	.seh_pushreg	rbp
	mov	rbp, rsp
	.seh_setframe	rbp, 0
	sub	rsp, 96
	.seh_stackalloc	96
	.seh_endprologue
	mov	QWORD PTR 16[rbp], rcx
	mov	QWORD PTR -8[rbp], 10
	mov	rax, QWORD PTR 16[rbp]
	add	rax, 8
	mov	rax, QWORD PTR [rax]
	mov	QWORD PTR -16[rbp], rax
	lea	rcx, eb_cdr[rip]
	mov	rax, QWORD PTR -16[rbp]
	mov	rdx, rax
	call	eb_cdr
	mov	QWORD PTR -24[rbp], rax
	lea	rcx, eb_equal[rip]
	mov	rdx, QWORD PTR -24[rbp]
	mov	rax, QWORD PTR -8[rbp]
	mov	r8, rdx
	mov	rdx, rax
	call	eb_equal
	mov	QWORD PTR -32[rbp], rax
	lea	rax, eb_put_error_body1f1f[rip]
	mov	QWORD PTR -48[rbp], rax
	lea	rax, eb_put_error_body1f2f[rip]
	mov	QWORD PTR -64[rbp], rax
	mov	rax, QWORD PTR 16[rbp]
	add	rax, 8
	mov	rax, QWORD PTR [rax]
	mov	QWORD PTR -56[rbp], rax
	lea	r8, -64[rbp]
	lea	rdx, -48[rbp]
	lea	rcx, eb_if[rip]
	mov	rax, QWORD PTR -32[rbp]
	mov	r9, r8
	mov	r8, rdx
	mov	rdx, rax
	call	eb_if
	mov	QWORD PTR -40[rbp], rax
	mov	rax, QWORD PTR -40[rbp]
	add	rsp, 96
	pop	rbp
	ret
	.seh_endproc
	.globl	eb_put_error_body2f1f
	.def	eb_put_error_body2f1f;	.scl	2;	.type	32;	.endef
	.seh_proc	eb_put_error_body2f1f
eb_put_error_body2f1f:
	push	rbp
	.seh_pushreg	rbp
	mov	rbp, rsp
	.seh_setframe	rbp, 0
	sub	rsp, 64
	.seh_stackalloc	64
	.seh_endprologue
	mov	QWORD PTR 16[rbp], rcx
	mov	rax, QWORD PTR 16[rbp]
	add	rax, 8
	mov	rax, QWORD PTR [rax]
	mov	QWORD PTR -8[rbp], rax
	lea	rcx, eb_cdr[rip]
	mov	rax, QWORD PTR -8[rbp]
	mov	rdx, rax
	call	eb_cdr
	mov	QWORD PTR -16[rbp], rax
	lea	rcx, eb_put_str[rip]
	mov	rax, QWORD PTR -16[rbp]
	mov	rdx, rax
	call	eb_put_str
	mov	QWORD PTR -24[rbp], rax
	mov	rax, QWORD PTR -24[rbp]
	add	rsp, 64
	pop	rbp
	ret
	.seh_endproc
	.section .rdata,"dr"
.LC6:
	.ascii " \0"
	.text
	.globl	eb_put_error_body2f2f1f
	.def	eb_put_error_body2f2f1f;	.scl	2;	.type	32;	.endef
	.seh_proc	eb_put_error_body2f2f1f
eb_put_error_body2f2f1f:
	push	rbp
	.seh_pushreg	rbp
	mov	rbp, rsp
	.seh_setframe	rbp, 0
	add	rsp, -128
	.seh_stackalloc	128
	.seh_endprologue
	mov	QWORD PTR 16[rbp], rcx
	mov	rax, QWORD PTR 16[rbp]
	add	rax, 8
	mov	rax, QWORD PTR [rax]
	mov	QWORD PTR -8[rbp], rax
	lea	rcx, eb_cdr[rip]
	mov	rax, QWORD PTR -8[rbp]
	mov	rdx, rax
	call	eb_cdr
	mov	QWORD PTR -16[rbp], rax
	lea	rcx, eb_car[rip]
	mov	rax, QWORD PTR -16[rbp]
	mov	rdx, rax
	call	eb_car
	mov	QWORD PTR -24[rbp], rax
	lea	rcx, eb_put_error_body[rip]
	mov	rax, QWORD PTR -24[rbp]
	mov	rdx, rax
	call	eb_put_error_body
	mov	QWORD PTR -32[rbp], rax
	lea	rax, .LC6[rip]
	mov	rdx, rax
	lea	rax, eb_put_error_body2f2f1f100.83[rip]
	mov	rcx, rax
	call	ebz_stol
	mov	rax, QWORD PTR eb_put_error_body2f2f1f100.83[rip]
	lea	rcx, eb_put_str[rip]
	mov	rdx, rax
	call	eb_put_str
	mov	QWORD PTR -40[rbp], rax
	mov	rax, QWORD PTR 16[rbp]
	add	rax, 8
	mov	rax, QWORD PTR [rax]
	mov	QWORD PTR -48[rbp], rax
	lea	rcx, eb_cdr[rip]
	mov	rax, QWORD PTR -48[rbp]
	mov	rdx, rax
	call	eb_cdr
	mov	QWORD PTR -56[rbp], rax
	lea	rcx, eb_cdr[rip]
	mov	rax, QWORD PTR -56[rbp]
	mov	rdx, rax
	call	eb_cdr
	mov	QWORD PTR -64[rbp], rax
	lea	rcx, eb_put_error_body[rip]
	mov	rax, QWORD PTR -64[rbp]
	mov	rdx, rax
	call	eb_put_error_body
	mov	QWORD PTR -72[rbp], rax
	lea	rcx, eb_do[rip]
	mov	rdx, QWORD PTR -72[rbp]
	mov	rax, QWORD PTR -40[rbp]
	mov	r8, rdx
	mov	rdx, rax
	call	eb_do
	mov	QWORD PTR -80[rbp], rax
	lea	rcx, eb_do[rip]
	mov	rdx, QWORD PTR -80[rbp]
	mov	rax, QWORD PTR -32[rbp]
	mov	r8, rdx
	mov	rdx, rax
	call	eb_do
	mov	QWORD PTR -88[rbp], rax
	mov	rax, QWORD PTR -88[rbp]
	sub	rsp, -128
	pop	rbp
	ret
	.seh_endproc
	.section .rdata,"dr"
.LC7:
	.ascii "(Wanted: \0"
.LC8:
	.ascii ")\0"
	.text
	.globl	eb_put_error_body2f2f2f1f
	.def	eb_put_error_body2f2f2f1f;	.scl	2;	.type	32;	.endef
	.seh_proc	eb_put_error_body2f2f2f1f
eb_put_error_body2f2f2f1f:
	push	rbp
	.seh_pushreg	rbp
	mov	rbp, rsp
	.seh_setframe	rbp, 0
	sub	rsp, 96
	.seh_stackalloc	96
	.seh_endprologue
	mov	QWORD PTR 16[rbp], rcx
	lea	rax, .LC7[rip]
	mov	rdx, rax
	lea	rax, eb_put_error_body2f2f2f1f00.82[rip]
	mov	rcx, rax
	call	ebz_stol
	mov	rax, QWORD PTR eb_put_error_body2f2f2f1f00.82[rip]
	lea	rcx, eb_put_str[rip]
	mov	rdx, rax
	call	eb_put_str
	mov	QWORD PTR -8[rbp], rax
	mov	rax, QWORD PTR 16[rbp]
	add	rax, 8
	mov	rax, QWORD PTR [rax]
	mov	QWORD PTR -16[rbp], rax
	lea	rcx, eb_cdr[rip]
	mov	rax, QWORD PTR -16[rbp]
	mov	rdx, rax
	call	eb_cdr
	mov	QWORD PTR -24[rbp], rax
	lea	rcx, eb_put_error_body[rip]
	mov	rax, QWORD PTR -24[rbp]
	mov	rdx, rax
	call	eb_put_error_body
	mov	QWORD PTR -32[rbp], rax
	lea	rax, .LC8[rip]
	mov	rdx, rax
	lea	rax, eb_put_error_body2f2f2f1f110.81[rip]
	mov	rcx, rax
	call	ebz_stol
	mov	rax, QWORD PTR eb_put_error_body2f2f2f1f110.81[rip]
	lea	rcx, eb_put_str[rip]
	mov	rdx, rax
	call	eb_put_str
	mov	QWORD PTR -40[rbp], rax
	lea	rcx, eb_do[rip]
	mov	rdx, QWORD PTR -40[rbp]
	mov	rax, QWORD PTR -32[rbp]
	mov	r8, rdx
	mov	rdx, rax
	call	eb_do
	mov	QWORD PTR -48[rbp], rax
	lea	rcx, eb_do[rip]
	mov	rdx, QWORD PTR -48[rbp]
	mov	rax, QWORD PTR -8[rbp]
	mov	r8, rdx
	mov	rdx, rax
	call	eb_do
	mov	QWORD PTR -56[rbp], rax
	mov	rax, QWORD PTR -56[rbp]
	add	rsp, 96
	pop	rbp
	ret
	.seh_endproc
	.section .rdata,"dr"
.LC9:
	.ascii "(Got: \0"
	.text
	.globl	eb_put_error_body2f2f2f2f1f
	.def	eb_put_error_body2f2f2f2f1f;	.scl	2;	.type	32;	.endef
	.seh_proc	eb_put_error_body2f2f2f2f1f
eb_put_error_body2f2f2f2f1f:
	push	rbp
	.seh_pushreg	rbp
	mov	rbp, rsp
	.seh_setframe	rbp, 0
	sub	rsp, 96
	.seh_stackalloc	96
	.seh_endprologue
	mov	QWORD PTR 16[rbp], rcx
	lea	rax, .LC9[rip]
	mov	rdx, rax
	lea	rax, eb_put_error_body2f2f2f2f1f00.80[rip]
	mov	rcx, rax
	call	ebz_stol
	mov	rax, QWORD PTR eb_put_error_body2f2f2f2f1f00.80[rip]
	lea	rcx, eb_put_str[rip]
	mov	rdx, rax
	call	eb_put_str
	mov	QWORD PTR -8[rbp], rax
	mov	rax, QWORD PTR 16[rbp]
	add	rax, 8
	mov	rax, QWORD PTR [rax]
	mov	QWORD PTR -16[rbp], rax
	lea	rcx, eb_cdr[rip]
	mov	rax, QWORD PTR -16[rbp]
	mov	rdx, rax
	call	eb_cdr
	mov	QWORD PTR -24[rbp], rax
	lea	rcx, eb_put_error_body[rip]
	mov	rax, QWORD PTR -24[rbp]
	mov	rdx, rax
	call	eb_put_error_body
	mov	QWORD PTR -32[rbp], rax
	lea	rax, .LC8[rip]
	mov	rdx, rax
	lea	rax, eb_put_error_body2f2f2f2f1f110.79[rip]
	mov	rcx, rax
	call	ebz_stol
	mov	rax, QWORD PTR eb_put_error_body2f2f2f2f1f110.79[rip]
	lea	rcx, eb_put_str[rip]
	mov	rdx, rax
	call	eb_put_str
	mov	QWORD PTR -40[rbp], rax
	lea	rcx, eb_do[rip]
	mov	rdx, QWORD PTR -40[rbp]
	mov	rax, QWORD PTR -32[rbp]
	mov	r8, rdx
	mov	rdx, rax
	call	eb_do
	mov	QWORD PTR -48[rbp], rax
	lea	rcx, eb_do[rip]
	mov	rdx, QWORD PTR -48[rbp]
	mov	rax, QWORD PTR -8[rbp]
	mov	r8, rdx
	mov	rdx, rax
	call	eb_do
	mov	QWORD PTR -56[rbp], rax
	mov	rax, QWORD PTR -56[rbp]
	add	rsp, 96
	pop	rbp
	ret
	.seh_endproc
	.section .rdata,"dr"
.LC10:
	.ascii "At Line \0"
.LC11:
	.ascii ", Col \0"
.LC12:
	.ascii ": \0"
	.text
	.globl	eb_put_error_body2f2f2f2f2f1f1f
	.def	eb_put_error_body2f2f2f2f2f1f1f;	.scl	2;	.type	32;	.endef
	.seh_proc	eb_put_error_body2f2f2f2f2f1f1f
eb_put_error_body2f2f2f2f2f1f1f:
	push	rbp
	.seh_pushreg	rbp
	mov	rbp, rsp
	.seh_setframe	rbp, 0
	sub	rsp, 176
	.seh_stackalloc	176
	.seh_endprologue
	mov	QWORD PTR 16[rbp], rcx
	mov	QWORD PTR 24[rbp], rdx
	lea	rax, .LC10[rip]
	mov	rdx, rax
	lea	rax, eb_put_error_body2f2f2f2f2f1f1f00.78[rip]
	mov	rcx, rax
	call	ebz_stol
	mov	rax, QWORD PTR eb_put_error_body2f2f2f2f2f1f1f00.78[rip]
	lea	rcx, eb_put_str[rip]
	mov	rdx, rax
	call	eb_put_str
	mov	QWORD PTR -8[rbp], rax
	mov	rax, QWORD PTR 24[rbp]
	mov	QWORD PTR -16[rbp], rax
	lea	rcx, eb_car[rip]
	mov	rax, QWORD PTR -16[rbp]
	mov	rdx, rax
	call	eb_car
	mov	QWORD PTR -24[rbp], rax
	lea	rcx, eb_put_num[rip]
	mov	rax, QWORD PTR -24[rbp]
	mov	rdx, rax
	call	eb_put_num
	mov	QWORD PTR -32[rbp], rax
	lea	rax, .LC11[rip]
	mov	rdx, rax
	lea	rax, eb_put_error_body2f2f2f2f2f1f1f1100.77[rip]
	mov	rcx, rax
	call	ebz_stol
	mov	rax, QWORD PTR eb_put_error_body2f2f2f2f2f1f1f1100.77[rip]
	lea	rcx, eb_put_str[rip]
	mov	rdx, rax
	call	eb_put_str
	mov	QWORD PTR -40[rbp], rax
	mov	rax, QWORD PTR 24[rbp]
	mov	QWORD PTR -48[rbp], rax
	lea	rcx, eb_cdr[rip]
	mov	rax, QWORD PTR -48[rbp]
	mov	rdx, rax
	call	eb_cdr
	mov	QWORD PTR -56[rbp], rax
	lea	rcx, eb_put_num[rip]
	mov	rax, QWORD PTR -56[rbp]
	mov	rdx, rax
	call	eb_put_num
	mov	QWORD PTR -64[rbp], rax
	lea	rax, .LC12[rip]
	mov	rdx, rax
	lea	rax, eb_put_error_body2f2f2f2f2f1f1f111100.76[rip]
	mov	rcx, rax
	call	ebz_stol
	mov	rax, QWORD PTR eb_put_error_body2f2f2f2f2f1f1f111100.76[rip]
	lea	rcx, eb_put_str[rip]
	mov	rdx, rax
	call	eb_put_str
	mov	QWORD PTR -72[rbp], rax
	mov	rax, QWORD PTR 16[rbp]
	add	rax, 8
	mov	rax, QWORD PTR [rax]
	mov	QWORD PTR -80[rbp], rax
	lea	rcx, eb_cdr[rip]
	mov	rax, QWORD PTR -80[rbp]
	mov	rdx, rax
	call	eb_cdr
	mov	QWORD PTR -88[rbp], rax
	lea	rcx, eb_cdr[rip]
	mov	rax, QWORD PTR -88[rbp]
	mov	rdx, rax
	call	eb_cdr
	mov	QWORD PTR -96[rbp], rax
	lea	rcx, eb_put_error_body[rip]
	mov	rax, QWORD PTR -96[rbp]
	mov	rdx, rax
	call	eb_put_error_body
	mov	QWORD PTR -104[rbp], rax
	lea	rcx, eb_do[rip]
	mov	rdx, QWORD PTR -104[rbp]
	mov	rax, QWORD PTR -72[rbp]
	mov	r8, rdx
	mov	rdx, rax
	call	eb_do
	mov	QWORD PTR -112[rbp], rax
	lea	rcx, eb_do[rip]
	mov	rdx, QWORD PTR -112[rbp]
	mov	rax, QWORD PTR -64[rbp]
	mov	r8, rdx
	mov	rdx, rax
	call	eb_do
	mov	QWORD PTR -120[rbp], rax
	lea	rcx, eb_do[rip]
	mov	rdx, QWORD PTR -120[rbp]
	mov	rax, QWORD PTR -40[rbp]
	mov	r8, rdx
	mov	rdx, rax
	call	eb_do
	mov	QWORD PTR -128[rbp], rax
	lea	rcx, eb_do[rip]
	mov	rdx, QWORD PTR -128[rbp]
	mov	rax, QWORD PTR -32[rbp]
	mov	r8, rdx
	mov	rdx, rax
	call	eb_do
	mov	QWORD PTR -136[rbp], rax
	lea	rcx, eb_do[rip]
	mov	rdx, QWORD PTR -136[rbp]
	mov	rax, QWORD PTR -8[rbp]
	mov	r8, rdx
	mov	rdx, rax
	call	eb_do
	mov	QWORD PTR -144[rbp], rax
	mov	rax, QWORD PTR -144[rbp]
	add	rsp, 176
	pop	rbp
	ret
	.seh_endproc
	.globl	eb_put_error_body2f2f2f2f2f1f
	.def	eb_put_error_body2f2f2f2f2f1f;	.scl	2;	.type	32;	.endef
	.seh_proc	eb_put_error_body2f2f2f2f2f1f
eb_put_error_body2f2f2f2f2f1f:
	push	rbp
	.seh_pushreg	rbp
	mov	rbp, rsp
	.seh_setframe	rbp, 0
	sub	rsp, 80
	.seh_stackalloc	80
	.seh_endprologue
	mov	QWORD PTR 16[rbp], rcx
	mov	rax, QWORD PTR 16[rbp]
	add	rax, 8
	mov	rax, QWORD PTR [rax]
	mov	QWORD PTR -8[rbp], rax
	lea	rcx, eb_cdr[rip]
	mov	rax, QWORD PTR -8[rbp]
	mov	rdx, rax
	call	eb_cdr
	mov	QWORD PTR -16[rbp], rax
	lea	rcx, eb_car[rip]
	mov	rax, QWORD PTR -16[rbp]
	mov	rdx, rax
	call	eb_car
	mov	QWORD PTR -24[rbp], rax
	lea	rax, eb_put_error_body2f2f2f2f2f1f1f[rip]
	mov	QWORD PTR -48[rbp], rax
	mov	rax, QWORD PTR 16[rbp]
	add	rax, 8
	mov	rax, QWORD PTR [rax]
	mov	QWORD PTR -40[rbp], rax
	lea	rdx, -48[rbp]
	lea	rcx, eb_let[rip]
	mov	rax, QWORD PTR -24[rbp]
	mov	r8, rdx
	mov	rdx, rax
	call	eb_let
	mov	QWORD PTR -32[rbp], rax
	mov	rax, QWORD PTR -32[rbp]
	add	rsp, 80
	pop	rbp
	ret
	.seh_endproc
	.globl	eb_put_error_body2f2f2f2f2f2f
	.def	eb_put_error_body2f2f2f2f2f2f;	.scl	2;	.type	32;	.endef
	.seh_proc	eb_put_error_body2f2f2f2f2f2f
eb_put_error_body2f2f2f2f2f2f:
	push	rbp
	.seh_pushreg	rbp
	mov	rbp, rsp
	.seh_setframe	rbp, 0
	sub	rsp, 16
	.seh_stackalloc	16
	.seh_endprologue
	mov	QWORD PTR 16[rbp], rcx
	mov	QWORD PTR -8[rbp], 0
	mov	rax, QWORD PTR -8[rbp]
	add	rsp, 16
	pop	rbp
	ret
	.seh_endproc
	.globl	eb_put_error_body2f2f2f2f2f
	.def	eb_put_error_body2f2f2f2f2f;	.scl	2;	.type	32;	.endef
	.seh_proc	eb_put_error_body2f2f2f2f2f
eb_put_error_body2f2f2f2f2f:
	push	rbp
	.seh_pushreg	rbp
	mov	rbp, rsp
	.seh_setframe	rbp, 0
	sub	rsp, 96
	.seh_stackalloc	96
	.seh_endprologue
	mov	QWORD PTR 16[rbp], rcx
	mov	rax, QWORD PTR 16[rbp]
	add	rax, 8
	mov	rax, QWORD PTR [rax]
	mov	QWORD PTR -8[rbp], rax
	lea	rcx, eb_error_is_position[rip]
	mov	rax, QWORD PTR -8[rbp]
	mov	rdx, rax
	call	eb_error_is_position
	mov	QWORD PTR -16[rbp], rax
	lea	rax, eb_put_error_body2f2f2f2f2f1f[rip]
	mov	QWORD PTR -48[rbp], rax
	mov	rax, QWORD PTR 16[rbp]
	add	rax, 8
	mov	rax, QWORD PTR [rax]
	mov	QWORD PTR -40[rbp], rax
	lea	rax, eb_put_error_body2f2f2f2f2f2f[rip]
	mov	QWORD PTR -56[rbp], rax
	lea	r8, -56[rbp]
	lea	rdx, -48[rbp]
	lea	rcx, eb_if[rip]
	mov	rax, QWORD PTR -16[rbp]
	mov	r9, r8
	mov	r8, rdx
	mov	rdx, rax
	call	eb_if
	mov	QWORD PTR -24[rbp], rax
	mov	rax, QWORD PTR -24[rbp]
	add	rsp, 96
	pop	rbp
	ret
	.seh_endproc
	.globl	eb_put_error_body2f2f2f2f
	.def	eb_put_error_body2f2f2f2f;	.scl	2;	.type	32;	.endef
	.seh_proc	eb_put_error_body2f2f2f2f
eb_put_error_body2f2f2f2f:
	push	rbp
	.seh_pushreg	rbp
	mov	rbp, rsp
	.seh_setframe	rbp, 0
	sub	rsp, 96
	.seh_stackalloc	96
	.seh_endprologue
	mov	QWORD PTR 16[rbp], rcx
	mov	rax, QWORD PTR 16[rbp]
	add	rax, 8
	mov	rax, QWORD PTR [rax]
	mov	QWORD PTR -8[rbp], rax
	lea	rcx, eb_error_is_got[rip]
	mov	rax, QWORD PTR -8[rbp]
	mov	rdx, rax
	call	eb_error_is_got
	mov	QWORD PTR -16[rbp], rax
	lea	rax, eb_put_error_body2f2f2f2f1f[rip]
	mov	QWORD PTR -48[rbp], rax
	mov	rax, QWORD PTR 16[rbp]
	add	rax, 8
	mov	rax, QWORD PTR [rax]
	mov	QWORD PTR -40[rbp], rax
	lea	rax, eb_put_error_body2f2f2f2f2f[rip]
	mov	QWORD PTR -64[rbp], rax
	mov	rax, QWORD PTR 16[rbp]
	add	rax, 8
	mov	rax, QWORD PTR [rax]
	mov	QWORD PTR -56[rbp], rax
	lea	r8, -64[rbp]
	lea	rdx, -48[rbp]
	lea	rcx, eb_if[rip]
	mov	rax, QWORD PTR -16[rbp]
	mov	r9, r8
	mov	r8, rdx
	mov	rdx, rax
	call	eb_if
	mov	QWORD PTR -24[rbp], rax
	mov	rax, QWORD PTR -24[rbp]
	add	rsp, 96
	pop	rbp
	ret
	.seh_endproc
	.globl	eb_put_error_body2f2f2f
	.def	eb_put_error_body2f2f2f;	.scl	2;	.type	32;	.endef
	.seh_proc	eb_put_error_body2f2f2f
eb_put_error_body2f2f2f:
	push	rbp
	.seh_pushreg	rbp
	mov	rbp, rsp
	.seh_setframe	rbp, 0
	sub	rsp, 96
	.seh_stackalloc	96
	.seh_endprologue
	mov	QWORD PTR 16[rbp], rcx
	mov	rax, QWORD PTR 16[rbp]
	add	rax, 8
	mov	rax, QWORD PTR [rax]
	mov	QWORD PTR -8[rbp], rax
	lea	rcx, eb_error_is_wanted[rip]
	mov	rax, QWORD PTR -8[rbp]
	mov	rdx, rax
	call	eb_error_is_wanted
	mov	QWORD PTR -16[rbp], rax
	lea	rax, eb_put_error_body2f2f2f1f[rip]
	mov	QWORD PTR -48[rbp], rax
	mov	rax, QWORD PTR 16[rbp]
	add	rax, 8
	mov	rax, QWORD PTR [rax]
	mov	QWORD PTR -40[rbp], rax
	lea	rax, eb_put_error_body2f2f2f2f[rip]
	mov	QWORD PTR -64[rbp], rax
	mov	rax, QWORD PTR 16[rbp]
	add	rax, 8
	mov	rax, QWORD PTR [rax]
	mov	QWORD PTR -56[rbp], rax
	lea	r8, -64[rbp]
	lea	rdx, -48[rbp]
	lea	rcx, eb_if[rip]
	mov	rax, QWORD PTR -16[rbp]
	mov	r9, r8
	mov	r8, rdx
	mov	rdx, rax
	call	eb_if
	mov	QWORD PTR -24[rbp], rax
	mov	rax, QWORD PTR -24[rbp]
	add	rsp, 96
	pop	rbp
	ret
	.seh_endproc
	.globl	eb_put_error_body2f2f
	.def	eb_put_error_body2f2f;	.scl	2;	.type	32;	.endef
	.seh_proc	eb_put_error_body2f2f
eb_put_error_body2f2f:
	push	rbp
	.seh_pushreg	rbp
	mov	rbp, rsp
	.seh_setframe	rbp, 0
	sub	rsp, 96
	.seh_stackalloc	96
	.seh_endprologue
	mov	QWORD PTR 16[rbp], rcx
	mov	rax, QWORD PTR 16[rbp]
	add	rax, 8
	mov	rax, QWORD PTR [rax]
	mov	QWORD PTR -8[rbp], rax
	lea	rcx, eb_error_is_both[rip]
	mov	rax, QWORD PTR -8[rbp]
	mov	rdx, rax
	call	eb_error_is_both
	mov	QWORD PTR -16[rbp], rax
	lea	rax, eb_put_error_body2f2f1f[rip]
	mov	QWORD PTR -48[rbp], rax
	mov	rax, QWORD PTR 16[rbp]
	add	rax, 8
	mov	rax, QWORD PTR [rax]
	mov	QWORD PTR -40[rbp], rax
	lea	rax, eb_put_error_body2f2f2f[rip]
	mov	QWORD PTR -64[rbp], rax
	mov	rax, QWORD PTR 16[rbp]
	add	rax, 8
	mov	rax, QWORD PTR [rax]
	mov	QWORD PTR -56[rbp], rax
	lea	r8, -64[rbp]
	lea	rdx, -48[rbp]
	lea	rcx, eb_if[rip]
	mov	rax, QWORD PTR -16[rbp]
	mov	r9, r8
	mov	r8, rdx
	mov	rdx, rax
	call	eb_if
	mov	QWORD PTR -24[rbp], rax
	mov	rax, QWORD PTR -24[rbp]
	add	rsp, 96
	pop	rbp
	ret
	.seh_endproc
	.globl	eb_put_error_body2f
	.def	eb_put_error_body2f;	.scl	2;	.type	32;	.endef
	.seh_proc	eb_put_error_body2f
eb_put_error_body2f:
	push	rbp
	.seh_pushreg	rbp
	mov	rbp, rsp
	.seh_setframe	rbp, 0
	sub	rsp, 96
	.seh_stackalloc	96
	.seh_endprologue
	mov	QWORD PTR 16[rbp], rcx
	mov	rax, QWORD PTR 16[rbp]
	add	rax, 8
	mov	rax, QWORD PTR [rax]
	mov	QWORD PTR -8[rbp], rax
	lea	rcx, eb_error_is_str[rip]
	mov	rax, QWORD PTR -8[rbp]
	mov	rdx, rax
	call	eb_error_is_str
	mov	QWORD PTR -16[rbp], rax
	lea	rax, eb_put_error_body2f1f[rip]
	mov	QWORD PTR -48[rbp], rax
	mov	rax, QWORD PTR 16[rbp]
	add	rax, 8
	mov	rax, QWORD PTR [rax]
	mov	QWORD PTR -40[rbp], rax
	lea	rax, eb_put_error_body2f2f[rip]
	mov	QWORD PTR -64[rbp], rax
	mov	rax, QWORD PTR 16[rbp]
	add	rax, 8
	mov	rax, QWORD PTR [rax]
	mov	QWORD PTR -56[rbp], rax
	lea	r8, -64[rbp]
	lea	rdx, -48[rbp]
	lea	rcx, eb_if[rip]
	mov	rax, QWORD PTR -16[rbp]
	mov	r9, r8
	mov	r8, rdx
	mov	rdx, rax
	call	eb_if
	mov	QWORD PTR -24[rbp], rax
	mov	rax, QWORD PTR -24[rbp]
	add	rsp, 96
	pop	rbp
	ret
	.seh_endproc
	.globl	eb_put_error_body
	.def	eb_put_error_body;	.scl	2;	.type	32;	.endef
	.seh_proc	eb_put_error_body
eb_put_error_body:
	push	rbp
	.seh_pushreg	rbp
	mov	rbp, rsp
	.seh_setframe	rbp, 0
	sub	rsp, 96
	.seh_stackalloc	96
	.seh_endprologue
	mov	QWORD PTR 16[rbp], rcx
	mov	QWORD PTR 24[rbp], rdx
	mov	rax, QWORD PTR 24[rbp]
	mov	QWORD PTR -8[rbp], rax
	lea	rcx, eb_error_is_char[rip]
	mov	rax, QWORD PTR -8[rbp]
	mov	rdx, rax
	call	eb_error_is_char
	mov	QWORD PTR -16[rbp], rax
	lea	rax, eb_put_error_body1f[rip]
	mov	QWORD PTR -48[rbp], rax
	mov	rax, QWORD PTR 24[rbp]
	mov	QWORD PTR -40[rbp], rax
	lea	rax, eb_put_error_body2f[rip]
	mov	QWORD PTR -64[rbp], rax
	mov	rax, QWORD PTR 24[rbp]
	mov	QWORD PTR -56[rbp], rax
	lea	r8, -64[rbp]
	lea	rdx, -48[rbp]
	lea	rcx, eb_if[rip]
	mov	rax, QWORD PTR -16[rbp]
	mov	r9, r8
	mov	r8, rdx
	mov	rdx, rax
	call	eb_if
	mov	QWORD PTR -24[rbp], rax
	mov	rax, QWORD PTR -24[rbp]
	add	rsp, 96
	pop	rbp
	ret
	.seh_endproc
	.globl	eb_put_error
	.def	eb_put_error;	.scl	2;	.type	32;	.endef
	.seh_proc	eb_put_error
eb_put_error:
	push	rbp
	.seh_pushreg	rbp
	mov	rbp, rsp
	.seh_setframe	rbp, 0
	sub	rsp, 64
	.seh_stackalloc	64
	.seh_endprologue
	mov	QWORD PTR 16[rbp], rcx
	mov	QWORD PTR 24[rbp], rdx
	mov	rax, QWORD PTR 24[rbp]
	mov	QWORD PTR -8[rbp], rax
	lea	rcx, eb_put_error_body[rip]
	mov	rax, QWORD PTR -8[rbp]
	mov	rdx, rax
	call	eb_put_error_body
	mov	QWORD PTR -16[rbp], rax
	lea	rax, eb_put_line[rip]
	mov	rcx, rax
	call	eb_put_line
	mov	QWORD PTR -24[rbp], rax
	lea	rcx, eb_do[rip]
	mov	rdx, QWORD PTR -24[rbp]
	mov	rax, QWORD PTR -16[rbp]
	mov	r8, rdx
	mov	rdx, rax
	call	eb_do
	mov	QWORD PTR -32[rbp], rax
	mov	rax, QWORD PTR -32[rbp]
	add	rsp, 64
	pop	rbp
	ret
	.seh_endproc
	.globl	eb_state_has_data
	.def	eb_state_has_data;	.scl	2;	.type	32;	.endef
	.seh_proc	eb_state_has_data
eb_state_has_data:
	push	rbp
	.seh_pushreg	rbp
	mov	rbp, rsp
	.seh_setframe	rbp, 0
	sub	rsp, 48
	.seh_stackalloc	48
	.seh_endprologue
	mov	QWORD PTR 16[rbp], rcx
	mov	QWORD PTR 24[rbp], rdx
	mov	rax, QWORD PTR 24[rbp]
	mov	QWORD PTR -8[rbp], rax
	lea	rcx, eb_cdr[rip]
	mov	rax, QWORD PTR -8[rbp]
	mov	rdx, rax
	call	eb_cdr
	mov	QWORD PTR -16[rbp], rax
	mov	rax, QWORD PTR -16[rbp]
	add	rsp, 48
	pop	rbp
	ret
	.seh_endproc
	.globl	eb_state_data
	.def	eb_state_data;	.scl	2;	.type	32;	.endef
	.seh_proc	eb_state_data
eb_state_data:
	push	rbp
	.seh_pushreg	rbp
	mov	rbp, rsp
	.seh_setframe	rbp, 0
	sub	rsp, 64
	.seh_stackalloc	64
	.seh_endprologue
	mov	QWORD PTR 16[rbp], rcx
	mov	QWORD PTR 24[rbp], rdx
	mov	rax, QWORD PTR 24[rbp]
	mov	QWORD PTR -8[rbp], rax
	lea	rcx, eb_cdr[rip]
	mov	rax, QWORD PTR -8[rbp]
	mov	rdx, rax
	call	eb_cdr
	mov	QWORD PTR -16[rbp], rax
	lea	rcx, eb_car[rip]
	mov	rax, QWORD PTR -16[rbp]
	mov	rdx, rax
	call	eb_car
	mov	QWORD PTR -24[rbp], rax
	mov	rax, QWORD PTR -24[rbp]
	add	rsp, 64
	pop	rbp
	ret
	.seh_endproc
	.globl	eb_state_pos
	.def	eb_state_pos;	.scl	2;	.type	32;	.endef
	.seh_proc	eb_state_pos
eb_state_pos:
	push	rbp
	.seh_pushreg	rbp
	mov	rbp, rsp
	.seh_setframe	rbp, 0
	sub	rsp, 48
	.seh_stackalloc	48
	.seh_endprologue
	mov	QWORD PTR 16[rbp], rcx
	mov	QWORD PTR 24[rbp], rdx
	mov	rax, QWORD PTR 24[rbp]
	mov	QWORD PTR -8[rbp], rax
	lea	rcx, eb_car[rip]
	mov	rax, QWORD PTR -8[rbp]
	mov	rdx, rax
	call	eb_car
	mov	QWORD PTR -16[rbp], rax
	mov	rax, QWORD PTR -16[rbp]
	add	rsp, 48
	pop	rbp
	ret
	.seh_endproc
	.globl	eb_state_line
	.def	eb_state_line;	.scl	2;	.type	32;	.endef
	.seh_proc	eb_state_line
eb_state_line:
	push	rbp
	.seh_pushreg	rbp
	mov	rbp, rsp
	.seh_setframe	rbp, 0
	sub	rsp, 64
	.seh_stackalloc	64
	.seh_endprologue
	mov	QWORD PTR 16[rbp], rcx
	mov	QWORD PTR 24[rbp], rdx
	mov	rax, QWORD PTR 24[rbp]
	mov	QWORD PTR -8[rbp], rax
	lea	rcx, eb_state_pos[rip]
	mov	rax, QWORD PTR -8[rbp]
	mov	rdx, rax
	call	eb_state_pos
	mov	QWORD PTR -16[rbp], rax
	lea	rcx, eb_car[rip]
	mov	rax, QWORD PTR -16[rbp]
	mov	rdx, rax
	call	eb_car
	mov	QWORD PTR -24[rbp], rax
	mov	rax, QWORD PTR -24[rbp]
	add	rsp, 64
	pop	rbp
	ret
	.seh_endproc
	.globl	eb_state_col
	.def	eb_state_col;	.scl	2;	.type	32;	.endef
	.seh_proc	eb_state_col
eb_state_col:
	push	rbp
	.seh_pushreg	rbp
	mov	rbp, rsp
	.seh_setframe	rbp, 0
	sub	rsp, 64
	.seh_stackalloc	64
	.seh_endprologue
	mov	QWORD PTR 16[rbp], rcx
	mov	QWORD PTR 24[rbp], rdx
	mov	rax, QWORD PTR 24[rbp]
	mov	QWORD PTR -8[rbp], rax
	lea	rcx, eb_state_pos[rip]
	mov	rax, QWORD PTR -8[rbp]
	mov	rdx, rax
	call	eb_state_pos
	mov	QWORD PTR -16[rbp], rax
	lea	rcx, eb_cdr[rip]
	mov	rax, QWORD PTR -16[rbp]
	mov	rdx, rax
	call	eb_cdr
	mov	QWORD PTR -24[rbp], rax
	mov	rax, QWORD PTR -24[rbp]
	add	rsp, 64
	pop	rbp
	ret
	.seh_endproc
	.globl	eb_str_to_state
	.def	eb_str_to_state;	.scl	2;	.type	32;	.endef
	.seh_proc	eb_str_to_state
eb_str_to_state:
	push	rbp
	.seh_pushreg	rbp
	mov	rbp, rsp
	.seh_setframe	rbp, 0
	sub	rsp, 80
	.seh_stackalloc	80
	.seh_endprologue
	mov	QWORD PTR 16[rbp], rcx
	mov	QWORD PTR 24[rbp], rdx
	mov	QWORD PTR -8[rbp], 1
	mov	QWORD PTR -16[rbp], 1
	lea	rcx, eb_cons[rip]
	mov	rdx, QWORD PTR -16[rbp]
	mov	rax, QWORD PTR -8[rbp]
	mov	r8, rdx
	mov	rdx, rax
	call	eb_cons
	mov	QWORD PTR -24[rbp], rax
	mov	rax, QWORD PTR 24[rbp]
	mov	QWORD PTR -32[rbp], rax
	lea	rcx, eb_cons[rip]
	mov	rdx, QWORD PTR -32[rbp]
	mov	rax, QWORD PTR -24[rbp]
	mov	r8, rdx
	mov	rdx, rax
	call	eb_cons
	mov	QWORD PTR -40[rbp], rax
	mov	rax, QWORD PTR -40[rbp]
	add	rsp, 80
	pop	rbp
	ret
	.seh_endproc
	.globl	eb_state_skip1f1f1f1f01f
	.def	eb_state_skip1f1f1f1f01f;	.scl	2;	.type	32;	.endef
	.seh_proc	eb_state_skip1f1f1f1f01f
eb_state_skip1f1f1f1f01f:
	push	rbp
	.seh_pushreg	rbp
	mov	rbp, rsp
	.seh_setframe	rbp, 0
	sub	rsp, 80
	.seh_stackalloc	80
	.seh_endprologue
	mov	QWORD PTR 16[rbp], rcx
	mov	QWORD PTR -8[rbp], 1
	mov	rax, QWORD PTR 16[rbp]
	add	rax, 8
	mov	rax, QWORD PTR [rax]
	mov	QWORD PTR -16[rbp], rax
	lea	rcx, eb_add[rip]
	mov	rdx, QWORD PTR -16[rbp]
	mov	rax, QWORD PTR -8[rbp]
	mov	r8, rdx
	mov	rdx, rax
	call	eb_add
	mov	QWORD PTR -24[rbp], rax
	mov	QWORD PTR -32[rbp], 1
	lea	rcx, eb_cons[rip]
	mov	rdx, QWORD PTR -32[rbp]
	mov	rax, QWORD PTR -24[rbp]
	mov	r8, rdx
	mov	rdx, rax
	call	eb_cons
	mov	QWORD PTR -40[rbp], rax
	mov	rax, QWORD PTR -40[rbp]
	add	rsp, 80
	pop	rbp
	ret
	.seh_endproc
	.globl	eb_state_skip1f1f1f1f02f
	.def	eb_state_skip1f1f1f1f02f;	.scl	2;	.type	32;	.endef
	.seh_proc	eb_state_skip1f1f1f1f02f
eb_state_skip1f1f1f1f02f:
	push	rbp
	.seh_pushreg	rbp
	mov	rbp, rsp
	.seh_setframe	rbp, 0
	sub	rsp, 80
	.seh_stackalloc	80
	.seh_endprologue
	mov	QWORD PTR 16[rbp], rcx
	mov	rax, QWORD PTR 16[rbp]
	add	rax, 16
	mov	rax, QWORD PTR [rax]
	mov	QWORD PTR -8[rbp], rax
	mov	QWORD PTR -16[rbp], 1
	mov	rax, QWORD PTR 16[rbp]
	add	rax, 8
	mov	rax, QWORD PTR [rax]
	mov	QWORD PTR -24[rbp], rax
	lea	rcx, eb_add[rip]
	mov	rdx, QWORD PTR -24[rbp]
	mov	rax, QWORD PTR -16[rbp]
	mov	r8, rdx
	mov	rdx, rax
	call	eb_add
	mov	QWORD PTR -32[rbp], rax
	lea	rcx, eb_cons[rip]
	mov	rdx, QWORD PTR -32[rbp]
	mov	rax, QWORD PTR -8[rbp]
	mov	r8, rdx
	mov	rdx, rax
	call	eb_cons
	mov	QWORD PTR -40[rbp], rax
	mov	rax, QWORD PTR -40[rbp]
	add	rsp, 80
	pop	rbp
	ret
	.seh_endproc
	.globl	eb_state_skip1f1f1f1f
	.def	eb_state_skip1f1f1f1f;	.scl	2;	.type	32;	.endef
	.seh_proc	eb_state_skip1f1f1f1f
eb_state_skip1f1f1f1f:
	push	rbp
	.seh_pushreg	rbp
	mov	rbp, rsp
	.seh_setframe	rbp, 0
	sub	rsp, 144
	.seh_stackalloc	144
	.seh_endprologue
	mov	QWORD PTR 16[rbp], rcx
	mov	QWORD PTR 24[rbp], rdx
	mov	rax, QWORD PTR 16[rbp]
	add	rax, 16
	mov	rax, QWORD PTR [rax]
	mov	QWORD PTR -8[rbp], rax
	mov	QWORD PTR -16[rbp], 10
	lea	rcx, eb_equal[rip]
	mov	rdx, QWORD PTR -16[rbp]
	mov	rax, QWORD PTR -8[rbp]
	mov	r8, rdx
	mov	rdx, rax
	call	eb_equal
	mov	QWORD PTR -24[rbp], rax
	lea	rax, eb_state_skip1f1f1f1f01f[rip]
	mov	QWORD PTR -80[rbp], rax
	mov	rax, QWORD PTR 24[rbp]
	mov	QWORD PTR -72[rbp], rax
	lea	rax, eb_state_skip1f1f1f1f02f[rip]
	mov	QWORD PTR -112[rbp], rax
	mov	rax, QWORD PTR 16[rbp]
	add	rax, 24
	mov	rax, QWORD PTR [rax]
	mov	QWORD PTR -104[rbp], rax
	mov	rax, QWORD PTR 24[rbp]
	mov	QWORD PTR -96[rbp], rax
	lea	r8, -112[rbp]
	lea	rdx, -80[rbp]
	lea	rcx, eb_if[rip]
	mov	rax, QWORD PTR -24[rbp]
	mov	r9, r8
	mov	r8, rdx
	mov	rdx, rax
	call	eb_if
	mov	QWORD PTR -32[rbp], rax
	mov	rax, QWORD PTR 16[rbp]
	add	rax, 8
	mov	rax, QWORD PTR [rax]
	mov	QWORD PTR -40[rbp], rax
	lea	rcx, eb_cdr[rip]
	mov	rax, QWORD PTR -40[rbp]
	mov	rdx, rax
	call	eb_cdr
	mov	QWORD PTR -48[rbp], rax
	lea	rcx, eb_cons[rip]
	mov	rdx, QWORD PTR -48[rbp]
	mov	rax, QWORD PTR -32[rbp]
	mov	r8, rdx
	mov	rdx, rax
	call	eb_cons
	mov	QWORD PTR -56[rbp], rax
	mov	rax, QWORD PTR -56[rbp]
	add	rsp, 144
	pop	rbp
	ret
	.seh_endproc
	.globl	eb_state_skip1f1f1f
	.def	eb_state_skip1f1f1f;	.scl	2;	.type	32;	.endef
	.seh_proc	eb_state_skip1f1f1f
eb_state_skip1f1f1f:
	push	rbp
	.seh_pushreg	rbp
	mov	rbp, rsp
	.seh_setframe	rbp, 0
	sub	rsp, 96
	.seh_stackalloc	96
	.seh_endprologue
	mov	QWORD PTR 16[rbp], rcx
	mov	QWORD PTR 24[rbp], rdx
	mov	rax, QWORD PTR 16[rbp]
	add	rax, 8
	mov	rax, QWORD PTR [rax]
	mov	QWORD PTR -8[rbp], rax
	lea	rcx, eb_state_line[rip]
	mov	rax, QWORD PTR -8[rbp]
	mov	rdx, rax
	call	eb_state_line
	mov	QWORD PTR -16[rbp], rax
	lea	rax, eb_state_skip1f1f1f1f[rip]
	mov	QWORD PTR -64[rbp], rax
	mov	rax, QWORD PTR 16[rbp]
	add	rax, 16
	mov	rax, QWORD PTR [rax]
	mov	QWORD PTR -56[rbp], rax
	mov	rax, QWORD PTR 16[rbp]
	add	rax, 24
	mov	rax, QWORD PTR [rax]
	mov	QWORD PTR -48[rbp], rax
	mov	rax, QWORD PTR 24[rbp]
	mov	QWORD PTR -40[rbp], rax
	lea	rdx, -64[rbp]
	lea	rcx, eb_let[rip]
	mov	rax, QWORD PTR -16[rbp]
	mov	r8, rdx
	mov	rdx, rax
	call	eb_let
	mov	QWORD PTR -24[rbp], rax
	mov	rax, QWORD PTR -24[rbp]
	add	rsp, 96
	pop	rbp
	ret
	.seh_endproc
	.globl	eb_state_skip1f1f
	.def	eb_state_skip1f1f;	.scl	2;	.type	32;	.endef
	.seh_proc	eb_state_skip1f1f
eb_state_skip1f1f:
	push	rbp
	.seh_pushreg	rbp
	mov	rbp, rsp
	.seh_setframe	rbp, 0
	sub	rsp, 96
	.seh_stackalloc	96
	.seh_endprologue
	mov	QWORD PTR 16[rbp], rcx
	mov	QWORD PTR 24[rbp], rdx
	mov	rax, QWORD PTR 16[rbp]
	add	rax, 8
	mov	rax, QWORD PTR [rax]
	mov	QWORD PTR -8[rbp], rax
	lea	rcx, eb_state_col[rip]
	mov	rax, QWORD PTR -8[rbp]
	mov	rdx, rax
	call	eb_state_col
	mov	QWORD PTR -16[rbp], rax
	lea	rax, eb_state_skip1f1f1f[rip]
	mov	QWORD PTR -64[rbp], rax
	mov	rax, QWORD PTR 16[rbp]
	add	rax, 8
	mov	rax, QWORD PTR [rax]
	mov	QWORD PTR -56[rbp], rax
	mov	rax, QWORD PTR 16[rbp]
	add	rax, 16
	mov	rax, QWORD PTR [rax]
	mov	QWORD PTR -48[rbp], rax
	mov	rax, QWORD PTR 24[rbp]
	mov	QWORD PTR -40[rbp], rax
	lea	rdx, -64[rbp]
	lea	rcx, eb_let[rip]
	mov	rax, QWORD PTR -16[rbp]
	mov	r8, rdx
	mov	rdx, rax
	call	eb_let
	mov	QWORD PTR -24[rbp], rax
	mov	rax, QWORD PTR -24[rbp]
	add	rsp, 96
	pop	rbp
	ret
	.seh_endproc
	.globl	eb_state_skip1f
	.def	eb_state_skip1f;	.scl	2;	.type	32;	.endef
	.seh_proc	eb_state_skip1f
eb_state_skip1f:
	push	rbp
	.seh_pushreg	rbp
	mov	rbp, rsp
	.seh_setframe	rbp, 0
	sub	rsp, 80
	.seh_stackalloc	80
	.seh_endprologue
	mov	QWORD PTR 16[rbp], rcx
	mov	QWORD PTR 24[rbp], rdx
	mov	rax, QWORD PTR 16[rbp]
	add	rax, 8
	mov	rax, QWORD PTR [rax]
	mov	QWORD PTR -8[rbp], rax
	lea	rcx, eb_state_data[rip]
	mov	rax, QWORD PTR -8[rbp]
	mov	rdx, rax
	call	eb_state_data
	mov	QWORD PTR -16[rbp], rax
	lea	rax, eb_state_skip1f1f[rip]
	mov	QWORD PTR -48[rbp], rax
	mov	rax, QWORD PTR 16[rbp]
	add	rax, 8
	mov	rax, QWORD PTR [rax]
	mov	QWORD PTR -40[rbp], rax
	mov	rax, QWORD PTR 24[rbp]
	mov	QWORD PTR -32[rbp], rax
	lea	rdx, -48[rbp]
	lea	rcx, eb_let[rip]
	mov	rax, QWORD PTR -16[rbp]
	mov	r8, rdx
	mov	rdx, rax
	call	eb_let
	mov	QWORD PTR -24[rbp], rax
	mov	rax, QWORD PTR -24[rbp]
	add	rsp, 80
	pop	rbp
	ret
	.seh_endproc
	.globl	eb_state_skip
	.def	eb_state_skip;	.scl	2;	.type	32;	.endef
	.seh_proc	eb_state_skip
eb_state_skip:
	push	rbp
	.seh_pushreg	rbp
	mov	rbp, rsp
	.seh_setframe	rbp, 0
	sub	rsp, 80
	.seh_stackalloc	80
	.seh_endprologue
	mov	QWORD PTR 16[rbp], rcx
	mov	QWORD PTR 24[rbp], rdx
	mov	rax, QWORD PTR 24[rbp]
	mov	QWORD PTR -8[rbp], rax
	lea	rcx, eb_cdr[rip]
	mov	rax, QWORD PTR -8[rbp]
	mov	rdx, rax
	call	eb_cdr
	mov	QWORD PTR -16[rbp], rax
	lea	rax, eb_state_skip1f[rip]
	mov	QWORD PTR -48[rbp], rax
	mov	rax, QWORD PTR 24[rbp]
	mov	QWORD PTR -40[rbp], rax
	lea	rdx, -48[rbp]
	lea	rcx, eb_let[rip]
	mov	rax, QWORD PTR -16[rbp]
	mov	r8, rdx
	mov	rdx, rax
	call	eb_let
	mov	QWORD PTR -24[rbp], rax
	mov	rax, QWORD PTR -24[rbp]
	add	rsp, 80
	pop	rbp
	ret
	.seh_endproc
	.globl	eb_strip_comment1f
	.def	eb_strip_comment1f;	.scl	2;	.type	32;	.endef
	.seh_proc	eb_strip_comment1f
eb_strip_comment1f:
	push	rbp
	.seh_pushreg	rbp
	mov	rbp, rsp
	.seh_setframe	rbp, 0
	sub	rsp, 16
	.seh_stackalloc	16
	.seh_endprologue
	mov	QWORD PTR 16[rbp], rcx
	mov	rax, QWORD PTR 16[rbp]
	add	rax, 8
	mov	rax, QWORD PTR [rax]
	mov	QWORD PTR -8[rbp], rax
	mov	rax, QWORD PTR -8[rbp]
	add	rsp, 16
	pop	rbp
	ret
	.seh_endproc
	.globl	eb_strip_comment2f1f1f
	.def	eb_strip_comment2f1f1f;	.scl	2;	.type	32;	.endef
	.seh_proc	eb_strip_comment2f1f1f
eb_strip_comment2f1f1f:
	push	rbp
	.seh_pushreg	rbp
	mov	rbp, rsp
	.seh_setframe	rbp, 0
	sub	rsp, 48
	.seh_stackalloc	48
	.seh_endprologue
	mov	QWORD PTR 16[rbp], rcx
	mov	rax, QWORD PTR 16[rbp]
	add	rax, 8
	mov	rax, QWORD PTR [rax]
	mov	QWORD PTR -8[rbp], rax
	lea	rcx, eb_state_skip[rip]
	mov	rax, QWORD PTR -8[rbp]
	mov	rdx, rax
	call	eb_state_skip
	mov	QWORD PTR -16[rbp], rax
	mov	rax, QWORD PTR -16[rbp]
	add	rsp, 48
	pop	rbp
	ret
	.seh_endproc
	.globl	eb_strip_comment2f1f2f
	.def	eb_strip_comment2f1f2f;	.scl	2;	.type	32;	.endef
	.seh_proc	eb_strip_comment2f1f2f
eb_strip_comment2f1f2f:
	push	rbp
	.seh_pushreg	rbp
	mov	rbp, rsp
	.seh_setframe	rbp, 0
	sub	rsp, 64
	.seh_stackalloc	64
	.seh_endprologue
	mov	QWORD PTR 16[rbp], rcx
	mov	rax, QWORD PTR 16[rbp]
	add	rax, 8
	mov	rax, QWORD PTR [rax]
	mov	QWORD PTR -8[rbp], rax
	lea	rcx, eb_state_skip[rip]
	mov	rax, QWORD PTR -8[rbp]
	mov	rdx, rax
	call	eb_state_skip
	mov	QWORD PTR -16[rbp], rax
	lea	rcx, eb_strip_comment[rip]
	mov	rax, QWORD PTR -16[rbp]
	mov	rdx, rax
	call	eb_strip_comment
	mov	QWORD PTR -24[rbp], rax
	mov	rax, QWORD PTR -24[rbp]
	add	rsp, 64
	pop	rbp
	ret
	.seh_endproc
	.globl	eb_strip_comment2f1f
	.def	eb_strip_comment2f1f;	.scl	2;	.type	32;	.endef
	.seh_proc	eb_strip_comment2f1f
eb_strip_comment2f1f:
	push	rbp
	.seh_pushreg	rbp
	mov	rbp, rsp
	.seh_setframe	rbp, 0
	sub	rsp, 96
	.seh_stackalloc	96
	.seh_endprologue
	mov	QWORD PTR 16[rbp], rcx
	mov	QWORD PTR 24[rbp], rdx
	mov	QWORD PTR -8[rbp], 35
	mov	rax, QWORD PTR 24[rbp]
	mov	QWORD PTR -16[rbp], rax
	lea	rcx, eb_equal[rip]
	mov	rdx, QWORD PTR -16[rbp]
	mov	rax, QWORD PTR -8[rbp]
	mov	r8, rdx
	mov	rdx, rax
	call	eb_equal
	mov	QWORD PTR -24[rbp], rax
	lea	rax, eb_strip_comment2f1f1f[rip]
	mov	QWORD PTR -48[rbp], rax
	mov	rax, QWORD PTR 16[rbp]
	add	rax, 8
	mov	rax, QWORD PTR [rax]
	mov	QWORD PTR -40[rbp], rax
	lea	rax, eb_strip_comment2f1f2f[rip]
	mov	QWORD PTR -64[rbp], rax
	mov	rax, QWORD PTR 16[rbp]
	add	rax, 8
	mov	rax, QWORD PTR [rax]
	mov	QWORD PTR -56[rbp], rax
	lea	r8, -64[rbp]
	lea	rdx, -48[rbp]
	lea	rcx, eb_if[rip]
	mov	rax, QWORD PTR -24[rbp]
	mov	r9, r8
	mov	r8, rdx
	mov	rdx, rax
	call	eb_if
	mov	QWORD PTR -32[rbp], rax
	mov	rax, QWORD PTR -32[rbp]
	add	rsp, 96
	pop	rbp
	ret
	.seh_endproc
	.globl	eb_strip_comment2f
	.def	eb_strip_comment2f;	.scl	2;	.type	32;	.endef
	.seh_proc	eb_strip_comment2f
eb_strip_comment2f:
	push	rbp
	.seh_pushreg	rbp
	mov	rbp, rsp
	.seh_setframe	rbp, 0
	sub	rsp, 80
	.seh_stackalloc	80
	.seh_endprologue
	mov	QWORD PTR 16[rbp], rcx
	mov	rax, QWORD PTR 16[rbp]
	add	rax, 8
	mov	rax, QWORD PTR [rax]
	mov	QWORD PTR -8[rbp], rax
	lea	rcx, eb_state_data[rip]
	mov	rax, QWORD PTR -8[rbp]
	mov	rdx, rax
	call	eb_state_data
	mov	QWORD PTR -16[rbp], rax
	lea	rax, eb_strip_comment2f1f[rip]
	mov	QWORD PTR -48[rbp], rax
	mov	rax, QWORD PTR 16[rbp]
	add	rax, 8
	mov	rax, QWORD PTR [rax]
	mov	QWORD PTR -40[rbp], rax
	lea	rdx, -48[rbp]
	lea	rcx, eb_let[rip]
	mov	rax, QWORD PTR -16[rbp]
	mov	r8, rdx
	mov	rdx, rax
	call	eb_let
	mov	QWORD PTR -24[rbp], rax
	mov	rax, QWORD PTR -24[rbp]
	add	rsp, 80
	pop	rbp
	ret
	.seh_endproc
	.globl	eb_strip_comment
	.def	eb_strip_comment;	.scl	2;	.type	32;	.endef
	.seh_proc	eb_strip_comment
eb_strip_comment:
	push	rbp
	.seh_pushreg	rbp
	mov	rbp, rsp
	.seh_setframe	rbp, 0
	sub	rsp, 96
	.seh_stackalloc	96
	.seh_endprologue
	mov	QWORD PTR 16[rbp], rcx
	mov	QWORD PTR 24[rbp], rdx
	mov	rax, QWORD PTR 24[rbp]
	mov	QWORD PTR -8[rbp], rax
	lea	rcx, eb_state_has_data[rip]
	mov	rax, QWORD PTR -8[rbp]
	mov	rdx, rax
	call	eb_state_has_data
	mov	QWORD PTR -16[rbp], rax
	lea	rcx, eb_not[rip]
	mov	rax, QWORD PTR -16[rbp]
	mov	rdx, rax
	call	eb_not
	mov	QWORD PTR -24[rbp], rax
	lea	rax, eb_strip_comment1f[rip]
	mov	QWORD PTR -48[rbp], rax
	mov	rax, QWORD PTR 24[rbp]
	mov	QWORD PTR -40[rbp], rax
	lea	rax, eb_strip_comment2f[rip]
	mov	QWORD PTR -64[rbp], rax
	mov	rax, QWORD PTR 24[rbp]
	mov	QWORD PTR -56[rbp], rax
	lea	r8, -64[rbp]
	lea	rdx, -48[rbp]
	lea	rcx, eb_if[rip]
	mov	rax, QWORD PTR -24[rbp]
	mov	r9, r8
	mov	r8, rdx
	mov	rdx, rax
	call	eb_if
	mov	QWORD PTR -32[rbp], rax
	mov	rax, QWORD PTR -32[rbp]
	add	rsp, 96
	pop	rbp
	ret
	.seh_endproc
	.globl	eb_strip1f
	.def	eb_strip1f;	.scl	2;	.type	32;	.endef
	.seh_proc	eb_strip1f
eb_strip1f:
	push	rbp
	.seh_pushreg	rbp
	mov	rbp, rsp
	.seh_setframe	rbp, 0
	sub	rsp, 16
	.seh_stackalloc	16
	.seh_endprologue
	mov	QWORD PTR 16[rbp], rcx
	mov	rax, QWORD PTR 16[rbp]
	add	rax, 8
	mov	rax, QWORD PTR [rax]
	mov	QWORD PTR -8[rbp], rax
	mov	rax, QWORD PTR -8[rbp]
	add	rsp, 16
	pop	rbp
	ret
	.seh_endproc
	.globl	eb_strip2f1f1f
	.def	eb_strip2f1f1f;	.scl	2;	.type	32;	.endef
	.seh_proc	eb_strip2f1f1f
eb_strip2f1f1f:
	push	rbp
	.seh_pushreg	rbp
	mov	rbp, rsp
	.seh_setframe	rbp, 0
	sub	rsp, 64
	.seh_stackalloc	64
	.seh_endprologue
	mov	QWORD PTR 16[rbp], rcx
	mov	rax, QWORD PTR 16[rbp]
	add	rax, 8
	mov	rax, QWORD PTR [rax]
	mov	QWORD PTR -8[rbp], rax
	lea	rcx, eb_state_skip[rip]
	mov	rax, QWORD PTR -8[rbp]
	mov	rdx, rax
	call	eb_state_skip
	mov	QWORD PTR -16[rbp], rax
	lea	rcx, eb_strip_comment[rip]
	mov	rax, QWORD PTR -16[rbp]
	mov	rdx, rax
	call	eb_strip_comment
	mov	QWORD PTR -24[rbp], rax
	lea	rcx, eb_strip[rip]
	mov	rax, QWORD PTR -24[rbp]
	mov	rdx, rax
	call	eb_strip
	mov	QWORD PTR -32[rbp], rax
	mov	rax, QWORD PTR -32[rbp]
	add	rsp, 64
	pop	rbp
	ret
	.seh_endproc
	.globl	eb_strip2f1f2f01f
	.def	eb_strip2f1f2f01f;	.scl	2;	.type	32;	.endef
	.seh_proc	eb_strip2f1f2f01f
eb_strip2f1f2f01f:
	push	rbp
	.seh_pushreg	rbp
	mov	rbp, rsp
	.seh_setframe	rbp, 0
	sub	rsp, 64
	.seh_stackalloc	64
	.seh_endprologue
	mov	QWORD PTR 16[rbp], rcx
	mov	QWORD PTR -8[rbp], 10
	mov	rax, QWORD PTR 16[rbp]
	add	rax, 8
	mov	rax, QWORD PTR [rax]
	mov	QWORD PTR -16[rbp], rax
	lea	rcx, eb_equal[rip]
	mov	rdx, QWORD PTR -16[rbp]
	mov	rax, QWORD PTR -8[rbp]
	mov	r8, rdx
	mov	rdx, rax
	call	eb_equal
	mov	QWORD PTR -24[rbp], rax
	mov	rax, QWORD PTR -24[rbp]
	add	rsp, 64
	pop	rbp
	ret
	.seh_endproc
	.globl	eb_strip2f1f2f1f
	.def	eb_strip2f1f2f1f;	.scl	2;	.type	32;	.endef
	.seh_proc	eb_strip2f1f2f1f
eb_strip2f1f2f1f:
	push	rbp
	.seh_pushreg	rbp
	mov	rbp, rsp
	.seh_setframe	rbp, 0
	sub	rsp, 64
	.seh_stackalloc	64
	.seh_endprologue
	mov	QWORD PTR 16[rbp], rcx
	mov	rax, QWORD PTR 16[rbp]
	add	rax, 8
	mov	rax, QWORD PTR [rax]
	mov	QWORD PTR -8[rbp], rax
	lea	rcx, eb_state_skip[rip]
	mov	rax, QWORD PTR -8[rbp]
	mov	rdx, rax
	call	eb_state_skip
	mov	QWORD PTR -16[rbp], rax
	lea	rcx, eb_strip[rip]
	mov	rax, QWORD PTR -16[rbp]
	mov	rdx, rax
	call	eb_strip
	mov	QWORD PTR -24[rbp], rax
	mov	rax, QWORD PTR -24[rbp]
	add	rsp, 64
	pop	rbp
	ret
	.seh_endproc
	.globl	eb_strip2f1f2f2f
	.def	eb_strip2f1f2f2f;	.scl	2;	.type	32;	.endef
	.seh_proc	eb_strip2f1f2f2f
eb_strip2f1f2f2f:
	push	rbp
	.seh_pushreg	rbp
	mov	rbp, rsp
	.seh_setframe	rbp, 0
	sub	rsp, 16
	.seh_stackalloc	16
	.seh_endprologue
	mov	QWORD PTR 16[rbp], rcx
	mov	rax, QWORD PTR 16[rbp]
	add	rax, 8
	mov	rax, QWORD PTR [rax]
	mov	QWORD PTR -8[rbp], rax
	mov	rax, QWORD PTR -8[rbp]
	add	rsp, 16
	pop	rbp
	ret
	.seh_endproc
	.globl	eb_strip2f1f2f
	.def	eb_strip2f1f2f;	.scl	2;	.type	32;	.endef
	.seh_proc	eb_strip2f1f2f
eb_strip2f1f2f:
	push	rbp
	.seh_pushreg	rbp
	mov	rbp, rsp
	.seh_setframe	rbp, 0
	add	rsp, -128
	.seh_stackalloc	128
	.seh_endprologue
	mov	QWORD PTR 16[rbp], rcx
	mov	QWORD PTR -8[rbp], 32
	mov	rax, QWORD PTR 16[rbp]
	add	rax, 16
	mov	rax, QWORD PTR [rax]
	mov	QWORD PTR -16[rbp], rax
	lea	rcx, eb_equal[rip]
	mov	rdx, QWORD PTR -16[rbp]
	mov	rax, QWORD PTR -8[rbp]
	mov	r8, rdx
	mov	rdx, rax
	call	eb_equal
	mov	QWORD PTR -24[rbp], rax
	lea	rax, eb_strip2f1f2f01f[rip]
	mov	QWORD PTR -64[rbp], rax
	mov	rax, QWORD PTR 16[rbp]
	add	rax, 16
	mov	rax, QWORD PTR [rax]
	mov	QWORD PTR -56[rbp], rax
	lea	rdx, -64[rbp]
	lea	rcx, eb_or[rip]
	mov	rax, QWORD PTR -24[rbp]
	mov	r8, rdx
	mov	rdx, rax
	call	eb_or
	mov	QWORD PTR -32[rbp], rax
	lea	rax, eb_strip2f1f2f1f[rip]
	mov	QWORD PTR -80[rbp], rax
	mov	rax, QWORD PTR 16[rbp]
	add	rax, 8
	mov	rax, QWORD PTR [rax]
	mov	QWORD PTR -72[rbp], rax
	lea	rax, eb_strip2f1f2f2f[rip]
	mov	QWORD PTR -96[rbp], rax
	mov	rax, QWORD PTR 16[rbp]
	add	rax, 8
	mov	rax, QWORD PTR [rax]
	mov	QWORD PTR -88[rbp], rax
	lea	r8, -96[rbp]
	lea	rdx, -80[rbp]
	lea	rcx, eb_if[rip]
	mov	rax, QWORD PTR -32[rbp]
	mov	r9, r8
	mov	r8, rdx
	mov	rdx, rax
	call	eb_if
	mov	QWORD PTR -40[rbp], rax
	mov	rax, QWORD PTR -40[rbp]
	sub	rsp, -128
	pop	rbp
	ret
	.seh_endproc
	.globl	eb_strip2f1f
	.def	eb_strip2f1f;	.scl	2;	.type	32;	.endef
	.seh_proc	eb_strip2f1f
eb_strip2f1f:
	push	rbp
	.seh_pushreg	rbp
	mov	rbp, rsp
	.seh_setframe	rbp, 0
	sub	rsp, 112
	.seh_stackalloc	112
	.seh_endprologue
	mov	QWORD PTR 16[rbp], rcx
	mov	QWORD PTR 24[rbp], rdx
	mov	QWORD PTR -8[rbp], 35
	mov	rax, QWORD PTR 24[rbp]
	mov	QWORD PTR -16[rbp], rax
	lea	rcx, eb_equal[rip]
	mov	rdx, QWORD PTR -16[rbp]
	mov	rax, QWORD PTR -8[rbp]
	mov	r8, rdx
	mov	rdx, rax
	call	eb_equal
	mov	QWORD PTR -24[rbp], rax
	lea	rax, eb_strip2f1f1f[rip]
	mov	QWORD PTR -48[rbp], rax
	mov	rax, QWORD PTR 16[rbp]
	add	rax, 8
	mov	rax, QWORD PTR [rax]
	mov	QWORD PTR -40[rbp], rax
	lea	rax, eb_strip2f1f2f[rip]
	mov	QWORD PTR -80[rbp], rax
	mov	rax, QWORD PTR 16[rbp]
	add	rax, 8
	mov	rax, QWORD PTR [rax]
	mov	QWORD PTR -72[rbp], rax
	mov	rax, QWORD PTR 24[rbp]
	mov	QWORD PTR -64[rbp], rax
	lea	r8, -80[rbp]
	lea	rdx, -48[rbp]
	lea	rcx, eb_if[rip]
	mov	rax, QWORD PTR -24[rbp]
	mov	r9, r8
	mov	r8, rdx
	mov	rdx, rax
	call	eb_if
	mov	QWORD PTR -32[rbp], rax
	mov	rax, QWORD PTR -32[rbp]
	add	rsp, 112
	pop	rbp
	ret
	.seh_endproc
	.globl	eb_strip2f
	.def	eb_strip2f;	.scl	2;	.type	32;	.endef
	.seh_proc	eb_strip2f
eb_strip2f:
	push	rbp
	.seh_pushreg	rbp
	mov	rbp, rsp
	.seh_setframe	rbp, 0
	sub	rsp, 80
	.seh_stackalloc	80
	.seh_endprologue
	mov	QWORD PTR 16[rbp], rcx
	mov	rax, QWORD PTR 16[rbp]
	add	rax, 8
	mov	rax, QWORD PTR [rax]
	mov	QWORD PTR -8[rbp], rax
	lea	rcx, eb_state_data[rip]
	mov	rax, QWORD PTR -8[rbp]
	mov	rdx, rax
	call	eb_state_data
	mov	QWORD PTR -16[rbp], rax
	lea	rax, eb_strip2f1f[rip]
	mov	QWORD PTR -48[rbp], rax
	mov	rax, QWORD PTR 16[rbp]
	add	rax, 8
	mov	rax, QWORD PTR [rax]
	mov	QWORD PTR -40[rbp], rax
	lea	rdx, -48[rbp]
	lea	rcx, eb_let[rip]
	mov	rax, QWORD PTR -16[rbp]
	mov	r8, rdx
	mov	rdx, rax
	call	eb_let
	mov	QWORD PTR -24[rbp], rax
	mov	rax, QWORD PTR -24[rbp]
	add	rsp, 80
	pop	rbp
	ret
	.seh_endproc
	.globl	eb_strip
	.def	eb_strip;	.scl	2;	.type	32;	.endef
	.seh_proc	eb_strip
eb_strip:
	push	rbp
	.seh_pushreg	rbp
	mov	rbp, rsp
	.seh_setframe	rbp, 0
	sub	rsp, 96
	.seh_stackalloc	96
	.seh_endprologue
	mov	QWORD PTR 16[rbp], rcx
	mov	QWORD PTR 24[rbp], rdx
	mov	rax, QWORD PTR 24[rbp]
	mov	QWORD PTR -8[rbp], rax
	lea	rcx, eb_state_has_data[rip]
	mov	rax, QWORD PTR -8[rbp]
	mov	rdx, rax
	call	eb_state_has_data
	mov	QWORD PTR -16[rbp], rax
	lea	rcx, eb_not[rip]
	mov	rax, QWORD PTR -16[rbp]
	mov	rdx, rax
	call	eb_not
	mov	QWORD PTR -24[rbp], rax
	lea	rax, eb_strip1f[rip]
	mov	QWORD PTR -48[rbp], rax
	mov	rax, QWORD PTR 24[rbp]
	mov	QWORD PTR -40[rbp], rax
	lea	rax, eb_strip2f[rip]
	mov	QWORD PTR -64[rbp], rax
	mov	rax, QWORD PTR 24[rbp]
	mov	QWORD PTR -56[rbp], rax
	lea	r8, -64[rbp]
	lea	rdx, -48[rbp]
	lea	rcx, eb_if[rip]
	mov	rax, QWORD PTR -24[rbp]
	mov	r9, r8
	mov	r8, rdx
	mov	rdx, rax
	call	eb_if
	mov	QWORD PTR -32[rbp], rax
	mov	rax, QWORD PTR -32[rbp]
	add	rsp, 96
	pop	rbp
	ret
	.seh_endproc
	.globl	eb_parse_any1f
	.def	eb_parse_any1f;	.scl	2;	.type	32;	.endef
	.seh_proc	eb_parse_any1f
eb_parse_any1f:
	push	rbp
	.seh_pushreg	rbp
	mov	rbp, rsp
	.seh_setframe	rbp, 0
	sub	rsp, 80
	.seh_stackalloc	80
	.seh_endprologue
	mov	QWORD PTR 16[rbp], rcx
	mov	rax, QWORD PTR 16[rbp]
	add	rax, 8
	mov	rax, QWORD PTR [rax]
	mov	QWORD PTR -8[rbp], rax
	mov	rax, QWORD PTR 16[rbp]
	add	rax, 16
	mov	rax, QWORD PTR [rax]
	mov	QWORD PTR -16[rbp], rax
	lea	rcx, eb_state_data[rip]
	mov	rax, QWORD PTR -16[rbp]
	mov	rdx, rax
	call	eb_state_data
	mov	QWORD PTR -24[rbp], rax
	mov	rax, QWORD PTR 16[rbp]
	add	rax, 16
	mov	rax, QWORD PTR [rax]
	mov	QWORD PTR -32[rbp], rax
	lea	rcx, eb_state_skip[rip]
	mov	rax, QWORD PTR -32[rbp]
	mov	rdx, rax
	call	eb_state_skip
	mov	QWORD PTR -40[rbp], rax
	mov	rax, QWORD PTR -8[rbp]
	mov	rax, QWORD PTR [rax]
	mov	r9, rax
	mov	rcx, QWORD PTR -40[rbp]
	mov	rdx, QWORD PTR -24[rbp]
	mov	rax, QWORD PTR -8[rbp]
	mov	r8, rcx
	mov	rcx, rax
	call	r9
	mov	QWORD PTR -48[rbp], rax
	mov	rax, QWORD PTR -48[rbp]
	add	rsp, 80
	pop	rbp
	ret
	.seh_endproc
	.section .rdata,"dr"
.LC13:
	.ascii "end of file\0"
	.text
	.globl	eb_parse_any2f
	.def	eb_parse_any2f;	.scl	2;	.type	32;	.endef
	.seh_proc	eb_parse_any2f
eb_parse_any2f:
	push	rbp
	.seh_pushreg	rbp
	mov	rbp, rsp
	.seh_setframe	rbp, 0
	sub	rsp, 96
	.seh_stackalloc	96
	.seh_endprologue
	mov	QWORD PTR 16[rbp], rcx
	mov	rax, QWORD PTR 16[rbp]
	add	rax, 8
	mov	rax, QWORD PTR [rax]
	mov	QWORD PTR -8[rbp], rax
	mov	rax, QWORD PTR 16[rbp]
	add	rax, 16
	mov	rax, QWORD PTR [rax]
	mov	QWORD PTR -16[rbp], rax
	lea	rcx, eb_state_pos[rip]
	mov	rax, QWORD PTR -16[rbp]
	mov	rdx, rax
	call	eb_state_pos
	mov	QWORD PTR -24[rbp], rax
	lea	rax, .LC13[rip]
	mov	rdx, rax
	lea	rax, eb_parse_any2f0100.75[rip]
	mov	rcx, rax
	call	ebz_stol
	mov	rax, QWORD PTR eb_parse_any2f0100.75[rip]
	lea	rcx, eb_error_from_str[rip]
	mov	rdx, rax
	call	eb_error_from_str
	mov	QWORD PTR -32[rbp], rax
	lea	rcx, eb_error_from_got[rip]
	mov	rax, QWORD PTR -32[rbp]
	mov	rdx, rax
	call	eb_error_from_got
	mov	QWORD PTR -40[rbp], rax
	lea	rcx, eb_error_from_position[rip]
	mov	rdx, QWORD PTR -40[rbp]
	mov	rax, QWORD PTR -24[rbp]
	mov	r8, rdx
	mov	rdx, rax
	call	eb_error_from_position
	mov	QWORD PTR -48[rbp], rax
	mov	rax, QWORD PTR -8[rbp]
	mov	rax, QWORD PTR [rax]
	mov	r8, rax
	mov	rdx, QWORD PTR -48[rbp]
	mov	rax, QWORD PTR -8[rbp]
	mov	rcx, rax
	call	r8
	mov	QWORD PTR -56[rbp], rax
	mov	rax, QWORD PTR -56[rbp]
	add	rsp, 96
	pop	rbp
	ret
	.seh_endproc
	.globl	eb_parse_any
	.def	eb_parse_any;	.scl	2;	.type	32;	.endef
	.seh_proc	eb_parse_any
eb_parse_any:
	push	rbp
	.seh_pushreg	rbp
	mov	rbp, rsp
	.seh_setframe	rbp, 0
	sub	rsp, 112
	.seh_stackalloc	112
	.seh_endprologue
	mov	QWORD PTR 16[rbp], rcx
	mov	QWORD PTR 24[rbp], rdx
	mov	QWORD PTR 32[rbp], r8
	mov	QWORD PTR 40[rbp], r9
	mov	rax, QWORD PTR 24[rbp]
	mov	QWORD PTR -8[rbp], rax
	lea	rcx, eb_state_has_data[rip]
	mov	rax, QWORD PTR -8[rbp]
	mov	rdx, rax
	call	eb_state_has_data
	mov	QWORD PTR -16[rbp], rax
	lea	rax, eb_parse_any1f[rip]
	mov	QWORD PTR -48[rbp], rax
	mov	rax, QWORD PTR 32[rbp]
	mov	QWORD PTR -40[rbp], rax
	mov	rax, QWORD PTR 24[rbp]
	mov	QWORD PTR -32[rbp], rax
	lea	rax, eb_parse_any2f[rip]
	mov	QWORD PTR -80[rbp], rax
	mov	rax, QWORD PTR 40[rbp]
	mov	QWORD PTR -72[rbp], rax
	mov	rax, QWORD PTR 24[rbp]
	mov	QWORD PTR -64[rbp], rax
	lea	r8, -80[rbp]
	lea	rdx, -48[rbp]
	lea	rcx, eb_if[rip]
	mov	rax, QWORD PTR -16[rbp]
	mov	r9, r8
	mov	r8, rdx
	mov	rdx, rax
	call	eb_if
	mov	QWORD PTR -24[rbp], rax
	mov	rax, QWORD PTR -24[rbp]
	add	rsp, 112
	pop	rbp
	ret
	.seh_endproc
	.globl	eb_parse_if1f1f
	.def	eb_parse_if1f1f;	.scl	2;	.type	32;	.endef
	.seh_proc	eb_parse_if1f1f
eb_parse_if1f1f:
	push	rbp
	.seh_pushreg	rbp
	mov	rbp, rsp
	.seh_setframe	rbp, 0
	sub	rsp, 64
	.seh_stackalloc	64
	.seh_endprologue
	mov	QWORD PTR 16[rbp], rcx
	mov	rax, QWORD PTR 16[rbp]
	add	rax, 8
	mov	rax, QWORD PTR [rax]
	mov	QWORD PTR -8[rbp], rax
	mov	rax, QWORD PTR 16[rbp]
	add	rax, 32
	mov	rax, QWORD PTR [rax]
	mov	QWORD PTR -16[rbp], rax
	mov	rax, QWORD PTR 16[rbp]
	add	rax, 24
	mov	rax, QWORD PTR [rax]
	mov	QWORD PTR -24[rbp], rax
	mov	rax, QWORD PTR -8[rbp]
	mov	rax, QWORD PTR [rax]
	mov	r9, rax
	mov	rcx, QWORD PTR -24[rbp]
	mov	rdx, QWORD PTR -16[rbp]
	mov	rax, QWORD PTR -8[rbp]
	mov	r8, rcx
	mov	rcx, rax
	call	r9
	mov	QWORD PTR -32[rbp], rax
	mov	rax, QWORD PTR -32[rbp]
	add	rsp, 64
	pop	rbp
	ret
	.seh_endproc
	.section .rdata,"dr"
.LC14:
	.ascii "match unknown criterion\0"
	.text
	.globl	eb_parse_if1f2f
	.def	eb_parse_if1f2f;	.scl	2;	.type	32;	.endef
	.seh_proc	eb_parse_if1f2f
eb_parse_if1f2f:
	push	rbp
	.seh_pushreg	rbp
	mov	rbp, rsp
	.seh_setframe	rbp, 0
	sub	rsp, 96
	.seh_stackalloc	96
	.seh_endprologue
	mov	QWORD PTR 16[rbp], rcx
	mov	rax, QWORD PTR 16[rbp]
	add	rax, 8
	mov	rax, QWORD PTR [rax]
	mov	QWORD PTR -8[rbp], rax
	mov	rax, QWORD PTR 16[rbp]
	add	rax, 24
	mov	rax, QWORD PTR [rax]
	mov	QWORD PTR -16[rbp], rax
	lea	rcx, eb_state_pos[rip]
	mov	rax, QWORD PTR -16[rbp]
	mov	rdx, rax
	call	eb_state_pos
	mov	QWORD PTR -24[rbp], rax
	lea	rax, .LC14[rip]
	mov	rdx, rax
	lea	rax, eb_parse_if1f2f0100.74[rip]
	mov	rcx, rax
	call	ebz_stol
	mov	rax, QWORD PTR eb_parse_if1f2f0100.74[rip]
	lea	rcx, eb_error_from_str[rip]
	mov	rdx, rax
	call	eb_error_from_str
	mov	QWORD PTR -32[rbp], rax
	lea	rcx, eb_error_from_wanted[rip]
	mov	rax, QWORD PTR -32[rbp]
	mov	rdx, rax
	call	eb_error_from_wanted
	mov	QWORD PTR -40[rbp], rax
	lea	rcx, eb_error_from_position[rip]
	mov	rdx, QWORD PTR -40[rbp]
	mov	rax, QWORD PTR -24[rbp]
	mov	r8, rdx
	mov	rdx, rax
	call	eb_error_from_position
	mov	QWORD PTR -48[rbp], rax
	mov	rax, QWORD PTR -8[rbp]
	mov	rax, QWORD PTR [rax]
	mov	r8, rax
	mov	rdx, QWORD PTR -48[rbp]
	mov	rax, QWORD PTR -8[rbp]
	mov	rcx, rax
	call	r8
	mov	QWORD PTR -56[rbp], rax
	mov	rax, QWORD PTR -56[rbp]
	add	rsp, 96
	pop	rbp
	ret
	.seh_endproc
	.globl	eb_parse_if1f
	.def	eb_parse_if1f;	.scl	2;	.type	32;	.endef
	.seh_proc	eb_parse_if1f
eb_parse_if1f:
	push	rbp
	.seh_pushreg	rbp
	mov	rbp, rsp
	.seh_setframe	rbp, 0
	sub	rsp, 144
	.seh_stackalloc	144
	.seh_endprologue
	mov	QWORD PTR 16[rbp], rcx
	mov	QWORD PTR 24[rbp], rdx
	mov	QWORD PTR 32[rbp], r8
	mov	rax, QWORD PTR 16[rbp]
	add	rax, 24
	mov	rax, QWORD PTR [rax]
	mov	QWORD PTR -8[rbp], rax
	mov	rax, QWORD PTR 24[rbp]
	mov	QWORD PTR -16[rbp], rax
	mov	rax, QWORD PTR -8[rbp]
	mov	rax, QWORD PTR [rax]
	mov	r8, rax
	mov	rdx, QWORD PTR -16[rbp]
	mov	rax, QWORD PTR -8[rbp]
	mov	rcx, rax
	call	r8
	mov	QWORD PTR -24[rbp], rax
	lea	rax, eb_parse_if1f1f[rip]
	mov	QWORD PTR -80[rbp], rax
	mov	rax, QWORD PTR 16[rbp]
	add	rax, 16
	mov	rax, QWORD PTR [rax]
	mov	QWORD PTR -72[rbp], rax
	mov	rax, QWORD PTR 16[rbp]
	add	rax, 32
	mov	rax, QWORD PTR [rax]
	mov	QWORD PTR -64[rbp], rax
	mov	rax, QWORD PTR 32[rbp]
	mov	QWORD PTR -56[rbp], rax
	mov	rax, QWORD PTR 24[rbp]
	mov	QWORD PTR -48[rbp], rax
	lea	rax, eb_parse_if1f2f[rip]
	mov	QWORD PTR -112[rbp], rax
	mov	rax, QWORD PTR 16[rbp]
	add	rax, 8
	mov	rax, QWORD PTR [rax]
	mov	QWORD PTR -104[rbp], rax
	mov	rax, QWORD PTR 16[rbp]
	add	rax, 32
	mov	rax, QWORD PTR [rax]
	mov	QWORD PTR -96[rbp], rax
	mov	rax, QWORD PTR 32[rbp]
	mov	QWORD PTR -88[rbp], rax
	lea	r8, -112[rbp]
	lea	rdx, -80[rbp]
	lea	rcx, eb_if[rip]
	mov	rax, QWORD PTR -24[rbp]
	mov	r9, r8
	mov	r8, rdx
	mov	rdx, rax
	call	eb_if
	mov	QWORD PTR -32[rbp], rax
	mov	rax, QWORD PTR -32[rbp]
	add	rsp, 144
	pop	rbp
	ret
	.seh_endproc
	.globl	eb_parse_if2f
	.def	eb_parse_if2f;	.scl	2;	.type	32;	.endef
	.seh_proc	eb_parse_if2f
eb_parse_if2f:
	push	rbp
	.seh_pushreg	rbp
	mov	rbp, rsp
	.seh_setframe	rbp, 0
	sub	rsp, 64
	.seh_stackalloc	64
	.seh_endprologue
	mov	QWORD PTR 16[rbp], rcx
	mov	QWORD PTR 24[rbp], rdx
	mov	rax, QWORD PTR 16[rbp]
	add	rax, 8
	mov	rax, QWORD PTR [rax]
	mov	QWORD PTR -8[rbp], rax
	mov	rax, QWORD PTR 24[rbp]
	mov	QWORD PTR -16[rbp], rax
	mov	rax, QWORD PTR -8[rbp]
	mov	rax, QWORD PTR [rax]
	mov	r8, rax
	mov	rdx, QWORD PTR -16[rbp]
	mov	rax, QWORD PTR -8[rbp]
	mov	rcx, rax
	call	r8
	mov	QWORD PTR -24[rbp], rax
	mov	rax, QWORD PTR -24[rbp]
	add	rsp, 64
	pop	rbp
	ret
	.seh_endproc
	.globl	eb_parse_if
	.def	eb_parse_if;	.scl	2;	.type	32;	.endef
	.seh_proc	eb_parse_if
eb_parse_if:
	push	rbp
	.seh_pushreg	rbp
	mov	rbp, rsp
	.seh_setframe	rbp, 0
	sub	rsp, 112
	.seh_stackalloc	112
	.seh_endprologue
	mov	QWORD PTR 16[rbp], rcx
	mov	QWORD PTR 24[rbp], rdx
	mov	QWORD PTR 32[rbp], r8
	mov	QWORD PTR 40[rbp], r9
	mov	rax, QWORD PTR 24[rbp]
	mov	QWORD PTR -8[rbp], rax
	lea	rax, eb_parse_if1f[rip]
	mov	QWORD PTR -64[rbp], rax
	mov	rax, QWORD PTR 48[rbp]
	mov	QWORD PTR -56[rbp], rax
	mov	rax, QWORD PTR 40[rbp]
	mov	QWORD PTR -48[rbp], rax
	mov	rax, QWORD PTR 32[rbp]
	mov	QWORD PTR -40[rbp], rax
	mov	rax, QWORD PTR 24[rbp]
	mov	QWORD PTR -32[rbp], rax
	lea	rax, eb_parse_if2f[rip]
	mov	QWORD PTR -80[rbp], rax
	mov	rax, QWORD PTR 48[rbp]
	mov	QWORD PTR -72[rbp], rax
	lea	r8, -80[rbp]
	lea	rdx, -64[rbp]
	lea	rcx, eb_parse_any[rip]
	mov	rax, QWORD PTR -8[rbp]
	mov	r9, r8
	mov	r8, rdx
	mov	rdx, rax
	call	eb_parse_any
	mov	QWORD PTR -16[rbp], rax
	mov	rax, QWORD PTR -16[rbp]
	add	rsp, 112
	pop	rbp
	ret
	.seh_endproc
	.globl	eb_parse_value1f
	.def	eb_parse_value1f;	.scl	2;	.type	32;	.endef
	.seh_proc	eb_parse_value1f
eb_parse_value1f:
	push	rbp
	.seh_pushreg	rbp
	mov	rbp, rsp
	.seh_setframe	rbp, 0
	sub	rsp, 64
	.seh_stackalloc	64
	.seh_endprologue
	mov	QWORD PTR 16[rbp], rcx
	mov	QWORD PTR 24[rbp], rdx
	mov	rax, QWORD PTR 16[rbp]
	add	rax, 8
	mov	rax, QWORD PTR [rax]
	mov	QWORD PTR -8[rbp], rax
	mov	rax, QWORD PTR 24[rbp]
	mov	QWORD PTR -16[rbp], rax
	lea	rcx, eb_equal[rip]
	mov	rdx, QWORD PTR -16[rbp]
	mov	rax, QWORD PTR -8[rbp]
	mov	r8, rdx
	mov	rdx, rax
	call	eb_equal
	mov	QWORD PTR -24[rbp], rax
	mov	rax, QWORD PTR -24[rbp]
	add	rsp, 64
	pop	rbp
	ret
	.seh_endproc
	.globl	eb_parse_value2f
	.def	eb_parse_value2f;	.scl	2;	.type	32;	.endef
	.seh_proc	eb_parse_value2f
eb_parse_value2f:
	push	rbp
	.seh_pushreg	rbp
	mov	rbp, rsp
	.seh_setframe	rbp, 0
	sub	rsp, 64
	.seh_stackalloc	64
	.seh_endprologue
	mov	QWORD PTR 16[rbp], rcx
	mov	QWORD PTR 24[rbp], rdx
	mov	QWORD PTR 32[rbp], r8
	mov	rax, QWORD PTR 16[rbp]
	add	rax, 8
	mov	rax, QWORD PTR [rax]
	mov	QWORD PTR -8[rbp], rax
	mov	rax, QWORD PTR 24[rbp]
	mov	QWORD PTR -16[rbp], rax
	mov	rax, QWORD PTR 32[rbp]
	mov	QWORD PTR -24[rbp], rax
	mov	rax, QWORD PTR -8[rbp]
	mov	rax, QWORD PTR [rax]
	mov	r9, rax
	mov	rcx, QWORD PTR -24[rbp]
	mov	rdx, QWORD PTR -16[rbp]
	mov	rax, QWORD PTR -8[rbp]
	mov	r8, rcx
	mov	rcx, rax
	call	r9
	mov	QWORD PTR -32[rbp], rax
	mov	rax, QWORD PTR -32[rbp]
	add	rsp, 64
	pop	rbp
	ret
	.seh_endproc
	.globl	eb_parse_value3f01101f
	.def	eb_parse_value3f01101f;	.scl	2;	.type	32;	.endef
	.seh_proc	eb_parse_value3f01101f
eb_parse_value3f01101f:
	push	rbp
	.seh_pushreg	rbp
	mov	rbp, rsp
	.seh_setframe	rbp, 0
	sub	rsp, 64
	.seh_stackalloc	64
	.seh_endprologue
	mov	QWORD PTR 16[rbp], rcx
	mov	rax, QWORD PTR 16[rbp]
	add	rax, 8
	mov	rax, QWORD PTR [rax]
	mov	QWORD PTR -8[rbp], rax
	lea	rcx, eb_state_data[rip]
	mov	rax, QWORD PTR -8[rbp]
	mov	rdx, rax
	call	eb_state_data
	mov	QWORD PTR -16[rbp], rax
	lea	rcx, eb_error_from_char[rip]
	mov	rax, QWORD PTR -16[rbp]
	mov	rdx, rax
	call	eb_error_from_char
	mov	QWORD PTR -24[rbp], rax
	mov	rax, QWORD PTR -24[rbp]
	add	rsp, 64
	pop	rbp
	ret
	.seh_endproc
	.globl	eb_parse_value3f01102f
	.def	eb_parse_value3f01102f;	.scl	2;	.type	32;	.endef
	.seh_proc	eb_parse_value3f01102f
eb_parse_value3f01102f:
	push	rbp
	.seh_pushreg	rbp
	mov	rbp, rsp
	.seh_setframe	rbp, 0
	sub	rsp, 48
	.seh_stackalloc	48
	.seh_endprologue
	mov	QWORD PTR 16[rbp], rcx
	lea	rax, .LC13[rip]
	mov	rdx, rax
	lea	rax, eb_parse_value3f01102f0.73[rip]
	mov	rcx, rax
	call	ebz_stol
	mov	rax, QWORD PTR eb_parse_value3f01102f0.73[rip]
	lea	rcx, eb_error_from_str[rip]
	mov	rdx, rax
	call	eb_error_from_str
	mov	QWORD PTR -8[rbp], rax
	mov	rax, QWORD PTR -8[rbp]
	add	rsp, 48
	pop	rbp
	ret
	.seh_endproc
	.globl	eb_parse_value3f
	.def	eb_parse_value3f;	.scl	2;	.type	32;	.endef
	.seh_proc	eb_parse_value3f
eb_parse_value3f:
	push	rbp
	.seh_pushreg	rbp
	mov	rbp, rsp
	.seh_setframe	rbp, 0
	sub	rsp, 176
	.seh_stackalloc	176
	.seh_endprologue
	mov	QWORD PTR 16[rbp], rcx
	mov	QWORD PTR 24[rbp], rdx
	mov	rax, QWORD PTR 16[rbp]
	add	rax, 8
	mov	rax, QWORD PTR [rax]
	mov	QWORD PTR -8[rbp], rax
	mov	rax, QWORD PTR 16[rbp]
	add	rax, 24
	mov	rax, QWORD PTR [rax]
	mov	QWORD PTR -16[rbp], rax
	lea	rcx, eb_state_pos[rip]
	mov	rax, QWORD PTR -16[rbp]
	mov	rdx, rax
	call	eb_state_pos
	mov	QWORD PTR -24[rbp], rax
	mov	rax, QWORD PTR 16[rbp]
	add	rax, 16
	mov	rax, QWORD PTR [rax]
	mov	QWORD PTR -32[rbp], rax
	lea	rcx, eb_error_from_char[rip]
	mov	rax, QWORD PTR -32[rbp]
	mov	rdx, rax
	call	eb_error_from_char
	mov	QWORD PTR -40[rbp], rax
	lea	rcx, eb_error_from_wanted[rip]
	mov	rax, QWORD PTR -40[rbp]
	mov	rdx, rax
	call	eb_error_from_wanted
	mov	QWORD PTR -48[rbp], rax
	mov	rax, QWORD PTR 16[rbp]
	add	rax, 24
	mov	rax, QWORD PTR [rax]
	mov	QWORD PTR -56[rbp], rax
	lea	rcx, eb_state_has_data[rip]
	mov	rax, QWORD PTR -56[rbp]
	mov	rdx, rax
	call	eb_state_has_data
	mov	QWORD PTR -64[rbp], rax
	lea	rax, eb_parse_value3f01101f[rip]
	mov	QWORD PTR -128[rbp], rax
	mov	rax, QWORD PTR 16[rbp]
	add	rax, 24
	mov	rax, QWORD PTR [rax]
	mov	QWORD PTR -120[rbp], rax
	lea	rax, eb_parse_value3f01102f[rip]
	mov	QWORD PTR -136[rbp], rax
	lea	r8, -136[rbp]
	lea	rdx, -128[rbp]
	lea	rcx, eb_if[rip]
	mov	rax, QWORD PTR -64[rbp]
	mov	r9, r8
	mov	r8, rdx
	mov	rdx, rax
	call	eb_if
	mov	QWORD PTR -72[rbp], rax
	lea	rcx, eb_error_from_got[rip]
	mov	rax, QWORD PTR -72[rbp]
	mov	rdx, rax
	call	eb_error_from_got
	mov	QWORD PTR -80[rbp], rax
	lea	rcx, eb_error_from_both[rip]
	mov	rdx, QWORD PTR -80[rbp]
	mov	rax, QWORD PTR -48[rbp]
	mov	r8, rdx
	mov	rdx, rax
	call	eb_error_from_both
	mov	QWORD PTR -88[rbp], rax
	lea	rcx, eb_error_from_position[rip]
	mov	rdx, QWORD PTR -88[rbp]
	mov	rax, QWORD PTR -24[rbp]
	mov	r8, rdx
	mov	rdx, rax
	call	eb_error_from_position
	mov	QWORD PTR -96[rbp], rax
	mov	rax, QWORD PTR -8[rbp]
	mov	rax, QWORD PTR [rax]
	mov	r8, rax
	mov	rdx, QWORD PTR -96[rbp]
	mov	rax, QWORD PTR -8[rbp]
	mov	rcx, rax
	call	r8
	mov	QWORD PTR -104[rbp], rax
	mov	rax, QWORD PTR -104[rbp]
	add	rsp, 176
	pop	rbp
	ret
	.seh_endproc
	.globl	eb_parse_value
	.def	eb_parse_value;	.scl	2;	.type	32;	.endef
	.seh_proc	eb_parse_value
eb_parse_value:
	push	rbp
	.seh_pushreg	rbp
	mov	rbp, rsp
	.seh_setframe	rbp, 0
	sub	rsp, 144
	.seh_stackalloc	144
	.seh_endprologue
	mov	QWORD PTR 16[rbp], rcx
	mov	QWORD PTR 24[rbp], rdx
	mov	QWORD PTR 32[rbp], r8
	mov	QWORD PTR 40[rbp], r9
	mov	rax, QWORD PTR 24[rbp]
	mov	QWORD PTR -8[rbp], rax
	lea	rax, eb_parse_value1f[rip]
	mov	QWORD PTR -32[rbp], rax
	mov	rax, QWORD PTR 32[rbp]
	mov	QWORD PTR -24[rbp], rax
	lea	rax, eb_parse_value2f[rip]
	mov	QWORD PTR -64[rbp], rax
	mov	rax, QWORD PTR 40[rbp]
	mov	QWORD PTR -56[rbp], rax
	mov	rax, QWORD PTR 32[rbp]
	mov	QWORD PTR -48[rbp], rax
	mov	rax, QWORD PTR 24[rbp]
	mov	QWORD PTR -40[rbp], rax
	lea	rax, eb_parse_value3f[rip]
	mov	QWORD PTR -96[rbp], rax
	mov	rax, QWORD PTR 48[rbp]
	mov	QWORD PTR -88[rbp], rax
	mov	rax, QWORD PTR 32[rbp]
	mov	QWORD PTR -80[rbp], rax
	mov	rax, QWORD PTR 24[rbp]
	mov	QWORD PTR -72[rbp], rax
	lea	rdx, -96[rbp]
	lea	r9, -64[rbp]
	lea	r8, -32[rbp]
	lea	rcx, eb_parse_if[rip]
	mov	rax, QWORD PTR -8[rbp]
	mov	QWORD PTR 32[rsp], rdx
	mov	rdx, rax
	call	eb_parse_if
	mov	QWORD PTR -16[rbp], rax
	mov	rax, QWORD PTR -16[rbp]
	add	rsp, 144
	pop	rbp
	ret
	.seh_endproc
	.globl	eb_parse_and1f1f1f1f
	.def	eb_parse_and1f1f1f1f;	.scl	2;	.type	32;	.endef
	.seh_proc	eb_parse_and1f1f1f1f
eb_parse_and1f1f1f1f:
	push	rbp
	.seh_pushreg	rbp
	mov	rbp, rsp
	.seh_setframe	rbp, 0
	sub	rsp, 80
	.seh_stackalloc	80
	.seh_endprologue
	mov	QWORD PTR 16[rbp], rcx
	mov	QWORD PTR 24[rbp], rdx
	mov	rax, QWORD PTR 16[rbp]
	add	rax, 8
	mov	rax, QWORD PTR [rax]
	mov	QWORD PTR -8[rbp], rax
	mov	rax, QWORD PTR 16[rbp]
	add	rax, 32
	mov	rax, QWORD PTR [rax]
	mov	QWORD PTR -16[rbp], rax
	mov	rax, QWORD PTR 24[rbp]
	mov	QWORD PTR -24[rbp], rax
	lea	rcx, eb_cons[rip]
	mov	rdx, QWORD PTR -24[rbp]
	mov	rax, QWORD PTR -16[rbp]
	mov	r8, rdx
	mov	rdx, rax
	call	eb_cons
	mov	QWORD PTR -32[rbp], rax
	mov	rax, QWORD PTR 16[rbp]
	add	rax, 40
	mov	rax, QWORD PTR [rax]
	mov	QWORD PTR -40[rbp], rax
	mov	rax, QWORD PTR -8[rbp]
	mov	rax, QWORD PTR [rax]
	mov	r9, rax
	mov	rcx, QWORD PTR -40[rbp]
	mov	rdx, QWORD PTR -32[rbp]
	mov	rax, QWORD PTR -8[rbp]
	mov	r8, rcx
	mov	rcx, rax
	call	r9
	mov	QWORD PTR -48[rbp], rax
	mov	rax, QWORD PTR -48[rbp]
	add	rsp, 80
	pop	rbp
	ret
	.seh_endproc
	.globl	eb_parse_and1f1f1f
	.def	eb_parse_and1f1f1f;	.scl	2;	.type	32;	.endef
	.seh_proc	eb_parse_and1f1f1f
eb_parse_and1f1f1f:
	push	rbp
	.seh_pushreg	rbp
	mov	rbp, rsp
	.seh_setframe	rbp, 0
	sub	rsp, 96
	.seh_stackalloc	96
	.seh_endprologue
	mov	QWORD PTR 16[rbp], rcx
	mov	QWORD PTR 24[rbp], rdx
	mov	QWORD PTR 32[rbp], r8
	mov	rax, QWORD PTR 24[rbp]
	mov	QWORD PTR -8[rbp], rax
	lea	rax, eb_parse_and1f1f1f1f[rip]
	mov	QWORD PTR -64[rbp], rax
	mov	rax, QWORD PTR 16[rbp]
	add	rax, 8
	mov	rax, QWORD PTR [rax]
	mov	QWORD PTR -56[rbp], rax
	mov	rax, QWORD PTR 16[rbp]
	add	rax, 16
	mov	rax, QWORD PTR [rax]
	mov	QWORD PTR -48[rbp], rax
	mov	rax, QWORD PTR 16[rbp]
	add	rax, 24
	mov	rax, QWORD PTR [rax]
	mov	QWORD PTR -40[rbp], rax
	mov	rax, QWORD PTR 16[rbp]
	add	rax, 40
	mov	rax, QWORD PTR [rax]
	mov	QWORD PTR -32[rbp], rax
	mov	rax, QWORD PTR 32[rbp]
	mov	QWORD PTR -24[rbp], rax
	lea	rdx, -64[rbp]
	lea	rcx, eb_let[rip]
	mov	rax, QWORD PTR -8[rbp]
	mov	r8, rdx
	mov	rdx, rax
	call	eb_let
	mov	QWORD PTR -16[rbp], rax
	mov	rax, QWORD PTR -16[rbp]
	add	rsp, 96
	pop	rbp
	ret
	.seh_endproc
	.globl	eb_parse_and1f1f2f
	.def	eb_parse_and1f1f2f;	.scl	2;	.type	32;	.endef
	.seh_proc	eb_parse_and1f1f2f
eb_parse_and1f1f2f:
	push	rbp
	.seh_pushreg	rbp
	mov	rbp, rsp
	.seh_setframe	rbp, 0
	sub	rsp, 64
	.seh_stackalloc	64
	.seh_endprologue
	mov	QWORD PTR 16[rbp], rcx
	mov	QWORD PTR 24[rbp], rdx
	mov	rax, QWORD PTR 16[rbp]
	add	rax, 8
	mov	rax, QWORD PTR [rax]
	mov	QWORD PTR -8[rbp], rax
	mov	rax, QWORD PTR 24[rbp]
	mov	QWORD PTR -16[rbp], rax
	mov	rax, QWORD PTR -8[rbp]
	mov	rax, QWORD PTR [rax]
	mov	r8, rax
	mov	rdx, QWORD PTR -16[rbp]
	mov	rax, QWORD PTR -8[rbp]
	mov	rcx, rax
	call	r8
	mov	QWORD PTR -24[rbp], rax
	mov	rax, QWORD PTR -24[rbp]
	add	rsp, 64
	pop	rbp
	ret
	.seh_endproc
	.globl	eb_parse_and1f1f
	.def	eb_parse_and1f1f;	.scl	2;	.type	32;	.endef
	.seh_proc	eb_parse_and1f1f
eb_parse_and1f1f:
	push	rbp
	.seh_pushreg	rbp
	mov	rbp, rsp
	.seh_setframe	rbp, 0
	add	rsp, -128
	.seh_stackalloc	128
	.seh_endprologue
	mov	QWORD PTR 16[rbp], rcx
	mov	QWORD PTR 24[rbp], rdx
	mov	rax, QWORD PTR 16[rbp]
	add	rax, 24
	mov	rax, QWORD PTR [rax]
	mov	QWORD PTR -8[rbp], rax
	mov	rax, QWORD PTR 16[rbp]
	add	rax, 40
	mov	rax, QWORD PTR [rax]
	mov	QWORD PTR -16[rbp], rax
	lea	rax, eb_parse_and1f1f1f[rip]
	mov	QWORD PTR -80[rbp], rax
	mov	rax, QWORD PTR 16[rbp]
	add	rax, 16
	mov	rax, QWORD PTR [rax]
	mov	QWORD PTR -72[rbp], rax
	mov	rax, QWORD PTR 16[rbp]
	add	rax, 32
	mov	rax, QWORD PTR [rax]
	mov	QWORD PTR -64[rbp], rax
	mov	rax, QWORD PTR 16[rbp]
	add	rax, 40
	mov	rax, QWORD PTR [rax]
	mov	QWORD PTR -56[rbp], rax
	mov	rax, QWORD PTR 16[rbp]
	add	rax, 48
	mov	rax, QWORD PTR [rax]
	mov	QWORD PTR -48[rbp], rax
	mov	rax, QWORD PTR 24[rbp]
	mov	QWORD PTR -40[rbp], rax
	lea	rax, eb_parse_and1f1f2f[rip]
	mov	QWORD PTR -96[rbp], rax
	mov	rax, QWORD PTR 16[rbp]
	add	rax, 8
	mov	rax, QWORD PTR [rax]
	mov	QWORD PTR -88[rbp], rax
	mov	rax, QWORD PTR -8[rbp]
	mov	rax, QWORD PTR [rax]
	mov	r10, rax
	lea	r8, -96[rbp]
	lea	rcx, -80[rbp]
	mov	rdx, QWORD PTR -16[rbp]
	mov	rax, QWORD PTR -8[rbp]
	mov	r9, r8
	mov	r8, rcx
	mov	rcx, rax
	call	r10
	mov	QWORD PTR -24[rbp], rax
	mov	rax, QWORD PTR -24[rbp]
	sub	rsp, -128
	pop	rbp
	ret
	.seh_endproc
	.globl	eb_parse_and1f
	.def	eb_parse_and1f;	.scl	2;	.type	32;	.endef
	.seh_proc	eb_parse_and1f
eb_parse_and1f:
	push	rbp
	.seh_pushreg	rbp
	mov	rbp, rsp
	.seh_setframe	rbp, 0
	sub	rsp, 112
	.seh_stackalloc	112
	.seh_endprologue
	mov	QWORD PTR 16[rbp], rcx
	mov	QWORD PTR 24[rbp], rdx
	mov	QWORD PTR 32[rbp], r8
	mov	rax, QWORD PTR 24[rbp]
	mov	QWORD PTR -8[rbp], rax
	lea	rax, eb_parse_and1f1f[rip]
	mov	QWORD PTR -80[rbp], rax
	mov	rax, QWORD PTR 16[rbp]
	add	rax, 8
	mov	rax, QWORD PTR [rax]
	mov	QWORD PTR -72[rbp], rax
	mov	rax, QWORD PTR 16[rbp]
	add	rax, 16
	mov	rax, QWORD PTR [rax]
	mov	QWORD PTR -64[rbp], rax
	mov	rax, QWORD PTR 16[rbp]
	add	rax, 24
	mov	rax, QWORD PTR [rax]
	mov	QWORD PTR -56[rbp], rax
	mov	rax, QWORD PTR 16[rbp]
	add	rax, 32
	mov	rax, QWORD PTR [rax]
	mov	QWORD PTR -48[rbp], rax
	mov	rax, QWORD PTR 32[rbp]
	mov	QWORD PTR -40[rbp], rax
	mov	rax, QWORD PTR 24[rbp]
	mov	QWORD PTR -32[rbp], rax
	lea	rdx, -80[rbp]
	lea	rcx, eb_let[rip]
	mov	rax, QWORD PTR -8[rbp]
	mov	r8, rdx
	mov	rdx, rax
	call	eb_let
	mov	QWORD PTR -16[rbp], rax
	mov	rax, QWORD PTR -16[rbp]
	add	rsp, 112
	pop	rbp
	ret
	.seh_endproc
	.globl	eb_parse_and2f
	.def	eb_parse_and2f;	.scl	2;	.type	32;	.endef
	.seh_proc	eb_parse_and2f
eb_parse_and2f:
	push	rbp
	.seh_pushreg	rbp
	mov	rbp, rsp
	.seh_setframe	rbp, 0
	sub	rsp, 64
	.seh_stackalloc	64
	.seh_endprologue
	mov	QWORD PTR 16[rbp], rcx
	mov	QWORD PTR 24[rbp], rdx
	mov	rax, QWORD PTR 16[rbp]
	add	rax, 8
	mov	rax, QWORD PTR [rax]
	mov	QWORD PTR -8[rbp], rax
	mov	rax, QWORD PTR 24[rbp]
	mov	QWORD PTR -16[rbp], rax
	mov	rax, QWORD PTR -8[rbp]
	mov	rax, QWORD PTR [rax]
	mov	r8, rax
	mov	rdx, QWORD PTR -16[rbp]
	mov	rax, QWORD PTR -8[rbp]
	mov	rcx, rax
	call	r8
	mov	QWORD PTR -24[rbp], rax
	mov	rax, QWORD PTR -24[rbp]
	add	rsp, 64
	pop	rbp
	ret
	.seh_endproc
	.globl	eb_parse_and
	.def	eb_parse_and;	.scl	2;	.type	32;	.endef
	.seh_proc	eb_parse_and
eb_parse_and:
	push	rbp
	.seh_pushreg	rbp
	mov	rbp, rsp
	.seh_setframe	rbp, 0
	sub	rsp, 112
	.seh_stackalloc	112
	.seh_endprologue
	mov	QWORD PTR 16[rbp], rcx
	mov	QWORD PTR 24[rbp], rdx
	mov	QWORD PTR 32[rbp], r8
	mov	QWORD PTR 40[rbp], r9
	mov	rax, QWORD PTR 32[rbp]
	mov	QWORD PTR -8[rbp], rax
	mov	rax, QWORD PTR 24[rbp]
	mov	QWORD PTR -16[rbp], rax
	lea	rax, eb_parse_and1f[rip]
	mov	QWORD PTR -64[rbp], rax
	mov	rax, QWORD PTR 56[rbp]
	mov	QWORD PTR -56[rbp], rax
	mov	rax, QWORD PTR 48[rbp]
	mov	QWORD PTR -48[rbp], rax
	mov	rax, QWORD PTR 40[rbp]
	mov	QWORD PTR -40[rbp], rax
	mov	rax, QWORD PTR 24[rbp]
	mov	QWORD PTR -32[rbp], rax
	lea	rax, eb_parse_and2f[rip]
	mov	QWORD PTR -80[rbp], rax
	mov	rax, QWORD PTR 56[rbp]
	mov	QWORD PTR -72[rbp], rax
	mov	rax, QWORD PTR -8[rbp]
	mov	rax, QWORD PTR [rax]
	mov	r10, rax
	lea	r8, -80[rbp]
	lea	rcx, -64[rbp]
	mov	rdx, QWORD PTR -16[rbp]
	mov	rax, QWORD PTR -8[rbp]
	mov	r9, r8
	mov	r8, rcx
	mov	rcx, rax
	call	r10
	mov	QWORD PTR -24[rbp], rax
	mov	rax, QWORD PTR -24[rbp]
	add	rsp, 112
	pop	rbp
	ret
	.seh_endproc
	.globl	eb_parse_zero_or_more1f1f
	.def	eb_parse_zero_or_more1f1f;	.scl	2;	.type	32;	.endef
	.seh_proc	eb_parse_zero_or_more1f1f
eb_parse_zero_or_more1f1f:
	push	rbp
	.seh_pushreg	rbp
	mov	rbp, rsp
	.seh_setframe	rbp, 0
	sub	rsp, 64
	.seh_stackalloc	64
	.seh_endprologue
	mov	QWORD PTR 16[rbp], rcx
	mov	QWORD PTR 24[rbp], rdx
	mov	QWORD PTR 32[rbp], r8
	mov	rax, QWORD PTR 16[rbp]
	add	rax, 24
	mov	rax, QWORD PTR [rax]
	mov	QWORD PTR -8[rbp], rax
	mov	rax, QWORD PTR 24[rbp]
	mov	QWORD PTR -16[rbp], rax
	mov	rax, QWORD PTR 32[rbp]
	mov	QWORD PTR -24[rbp], rax
	mov	rax, QWORD PTR -8[rbp]
	mov	rax, QWORD PTR [rax]
	mov	r9, rax
	mov	rcx, QWORD PTR -24[rbp]
	mov	rdx, QWORD PTR -16[rbp]
	mov	rax, QWORD PTR -8[rbp]
	mov	r8, rcx
	mov	rcx, rax
	call	r9
	mov	QWORD PTR -32[rbp], rax
	mov	rax, QWORD PTR -32[rbp]
	add	rsp, 64
	pop	rbp
	ret
	.seh_endproc
	.globl	eb_parse_zero_or_more1f2f
	.def	eb_parse_zero_or_more1f2f;	.scl	2;	.type	32;	.endef
	.seh_proc	eb_parse_zero_or_more1f2f
eb_parse_zero_or_more1f2f:
	push	rbp
	.seh_pushreg	rbp
	mov	rbp, rsp
	.seh_setframe	rbp, 0
	sub	rsp, 64
	.seh_stackalloc	64
	.seh_endprologue
	mov	QWORD PTR 16[rbp], rcx
	mov	QWORD PTR 24[rbp], rdx
	mov	rax, QWORD PTR 16[rbp]
	add	rax, 16
	mov	rax, QWORD PTR [rax]
	mov	QWORD PTR -8[rbp], rax
	mov	rax, QWORD PTR 24[rbp]
	mov	QWORD PTR -16[rbp], rax
	mov	rax, QWORD PTR -8[rbp]
	mov	rax, QWORD PTR [rax]
	mov	r8, rax
	mov	rdx, QWORD PTR -16[rbp]
	mov	rax, QWORD PTR -8[rbp]
	mov	rcx, rax
	call	r8
	mov	QWORD PTR -24[rbp], rax
	mov	rax, QWORD PTR -24[rbp]
	add	rsp, 64
	pop	rbp
	ret
	.seh_endproc
	.globl	eb_parse_zero_or_more1f
	.def	eb_parse_zero_or_more1f;	.scl	2;	.type	32;	.endef
	.seh_proc	eb_parse_zero_or_more1f
eb_parse_zero_or_more1f:
	push	rbp
	.seh_pushreg	rbp
	mov	rbp, rsp
	.seh_setframe	rbp, 0
	add	rsp, -128
	.seh_stackalloc	128
	.seh_endprologue
	mov	QWORD PTR 16[rbp], rcx
	mov	QWORD PTR 24[rbp], rdx
	mov	QWORD PTR 32[rbp], r8
	mov	QWORD PTR 40[rbp], r9
	mov	rax, QWORD PTR 16[rbp]
	add	rax, 24
	mov	rax, QWORD PTR [rax]
	mov	QWORD PTR -8[rbp], rax
	mov	rax, QWORD PTR 24[rbp]
	mov	QWORD PTR -16[rbp], rax
	lea	rax, eb_parse_zero_or_more1f1f[rip]
	mov	QWORD PTR -64[rbp], rax
	mov	rax, QWORD PTR 16[rbp]
	add	rax, 16
	mov	rax, QWORD PTR [rax]
	mov	QWORD PTR -56[rbp], rax
	mov	rax, QWORD PTR 16[rbp]
	add	rax, 32
	mov	rax, QWORD PTR [rax]
	mov	QWORD PTR -48[rbp], rax
	mov	rax, QWORD PTR 32[rbp]
	mov	QWORD PTR -40[rbp], rax
	mov	rax, QWORD PTR 24[rbp]
	mov	QWORD PTR -32[rbp], rax
	lea	rax, eb_parse_zero_or_more1f2f[rip]
	mov	QWORD PTR -96[rbp], rax
	mov	rax, QWORD PTR 16[rbp]
	add	rax, 8
	mov	rax, QWORD PTR [rax]
	mov	QWORD PTR -88[rbp], rax
	mov	rax, QWORD PTR 40[rbp]
	mov	QWORD PTR -80[rbp], rax
	mov	rax, QWORD PTR -8[rbp]
	mov	rax, QWORD PTR [rax]
	mov	r10, rax
	lea	r8, -96[rbp]
	lea	rcx, -64[rbp]
	mov	rdx, QWORD PTR -16[rbp]
	mov	rax, QWORD PTR -8[rbp]
	mov	r9, r8
	mov	r8, rcx
	mov	rcx, rax
	call	r10
	mov	QWORD PTR -24[rbp], rax
	mov	rax, QWORD PTR -24[rbp]
	sub	rsp, -128
	pop	rbp
	ret
	.seh_endproc
	.globl	eb_parse_zero_or_more2f1f1f
	.def	eb_parse_zero_or_more2f1f1f;	.scl	2;	.type	32;	.endef
	.seh_proc	eb_parse_zero_or_more2f1f1f
eb_parse_zero_or_more2f1f1f:
	push	rbp
	.seh_pushreg	rbp
	mov	rbp, rsp
	.seh_setframe	rbp, 0
	sub	rsp, 64
	.seh_stackalloc	64
	.seh_endprologue
	mov	QWORD PTR 16[rbp], rcx
	mov	QWORD PTR 24[rbp], rdx
	mov	QWORD PTR 32[rbp], r8
	mov	rax, QWORD PTR 16[rbp]
	add	rax, 40
	mov	rax, QWORD PTR [rax]
	mov	QWORD PTR -8[rbp], rax
	mov	rax, QWORD PTR 24[rbp]
	mov	QWORD PTR -16[rbp], rax
	mov	rax, QWORD PTR 32[rbp]
	mov	QWORD PTR -24[rbp], rax
	mov	rax, QWORD PTR -8[rbp]
	mov	rax, QWORD PTR [rax]
	mov	r9, rax
	mov	rcx, QWORD PTR -24[rbp]
	mov	rdx, QWORD PTR -16[rbp]
	mov	rax, QWORD PTR -8[rbp]
	mov	r8, rcx
	mov	rcx, rax
	call	r9
	mov	QWORD PTR -32[rbp], rax
	mov	rax, QWORD PTR -32[rbp]
	add	rsp, 64
	pop	rbp
	ret
	.seh_endproc
	.globl	eb_parse_zero_or_more2f1f2f
	.def	eb_parse_zero_or_more2f1f2f;	.scl	2;	.type	32;	.endef
	.seh_proc	eb_parse_zero_or_more2f1f2f
eb_parse_zero_or_more2f1f2f:
	push	rbp
	.seh_pushreg	rbp
	mov	rbp, rsp
	.seh_setframe	rbp, 0
	sub	rsp, 64
	.seh_stackalloc	64
	.seh_endprologue
	mov	QWORD PTR 16[rbp], rcx
	mov	QWORD PTR 24[rbp], rdx
	mov	rax, QWORD PTR 16[rbp]
	add	rax, 24
	mov	rax, QWORD PTR [rax]
	mov	QWORD PTR -8[rbp], rax
	mov	rax, QWORD PTR 24[rbp]
	mov	QWORD PTR -16[rbp], rax
	mov	rax, QWORD PTR -8[rbp]
	mov	rax, QWORD PTR [rax]
	mov	r8, rax
	mov	rdx, QWORD PTR -16[rbp]
	mov	rax, QWORD PTR -8[rbp]
	mov	rcx, rax
	call	r8
	mov	QWORD PTR -24[rbp], rax
	mov	rax, QWORD PTR -24[rbp]
	add	rsp, 64
	pop	rbp
	ret
	.seh_endproc
	.globl	eb_parse_zero_or_more2f1f
	.def	eb_parse_zero_or_more2f1f;	.scl	2;	.type	32;	.endef
	.seh_proc	eb_parse_zero_or_more2f1f
eb_parse_zero_or_more2f1f:
	push	rbp
	.seh_pushreg	rbp
	mov	rbp, rsp
	.seh_setframe	rbp, 0
	sub	rsp, 144
	.seh_stackalloc	144
	.seh_endprologue
	mov	QWORD PTR 16[rbp], rcx
	mov	QWORD PTR 24[rbp], rdx
	mov	QWORD PTR 32[rbp], r8
	mov	QWORD PTR 40[rbp], r9
	mov	rax, QWORD PTR 16[rbp]
	add	rax, 24
	mov	rax, QWORD PTR [rax]
	mov	QWORD PTR -8[rbp], rax
	mov	rax, QWORD PTR 24[rbp]
	mov	QWORD PTR -16[rbp], rax
	lea	rax, eb_parse_zero_or_more2f1f1f[rip]
	mov	QWORD PTR -80[rbp], rax
	mov	rax, QWORD PTR 16[rbp]
	add	rax, 16
	mov	rax, QWORD PTR [rax]
	mov	QWORD PTR -72[rbp], rax
	mov	rax, QWORD PTR 16[rbp]
	add	rax, 32
	mov	rax, QWORD PTR [rax]
	mov	QWORD PTR -64[rbp], rax
	mov	rax, QWORD PTR 16[rbp]
	add	rax, 48
	mov	rax, QWORD PTR [rax]
	mov	QWORD PTR -56[rbp], rax
	mov	rax, QWORD PTR 16[rbp]
	add	rax, 56
	mov	rax, QWORD PTR [rax]
	mov	QWORD PTR -48[rbp], rax
	mov	rax, QWORD PTR 32[rbp]
	mov	QWORD PTR -40[rbp], rax
	mov	rax, QWORD PTR 24[rbp]
	mov	QWORD PTR -32[rbp], rax
	lea	rax, eb_parse_zero_or_more2f1f2f[rip]
	mov	QWORD PTR -112[rbp], rax
	mov	rax, QWORD PTR 16[rbp]
	add	rax, 8
	mov	rax, QWORD PTR [rax]
	mov	QWORD PTR -104[rbp], rax
	mov	rax, QWORD PTR 16[rbp]
	add	rax, 40
	mov	rax, QWORD PTR [rax]
	mov	QWORD PTR -96[rbp], rax
	mov	rax, QWORD PTR 40[rbp]
	mov	QWORD PTR -88[rbp], rax
	mov	rax, QWORD PTR -8[rbp]
	mov	rax, QWORD PTR [rax]
	mov	r10, rax
	lea	r8, -112[rbp]
	lea	rcx, -80[rbp]
	mov	rdx, QWORD PTR -16[rbp]
	mov	rax, QWORD PTR -8[rbp]
	mov	r9, r8
	mov	r8, rcx
	mov	rcx, rax
	call	r10
	mov	QWORD PTR -24[rbp], rax
	mov	rax, QWORD PTR -24[rbp]
	add	rsp, 144
	pop	rbp
	ret
	.seh_endproc
	.globl	eb_parse_zero_or_more2f2f
	.def	eb_parse_zero_or_more2f2f;	.scl	2;	.type	32;	.endef
	.seh_proc	eb_parse_zero_or_more2f2f
eb_parse_zero_or_more2f2f:
	push	rbp
	.seh_pushreg	rbp
	mov	rbp, rsp
	.seh_setframe	rbp, 0
	sub	rsp, 64
	.seh_stackalloc	64
	.seh_endprologue
	mov	QWORD PTR 16[rbp], rcx
	mov	QWORD PTR 24[rbp], rdx
	mov	QWORD PTR 32[rbp], r8
	mov	rax, QWORD PTR 16[rbp]
	add	rax, 24
	mov	rax, QWORD PTR [rax]
	mov	QWORD PTR -8[rbp], rax
	mov	rax, QWORD PTR 24[rbp]
	mov	QWORD PTR -16[rbp], rax
	mov	rax, QWORD PTR 32[rbp]
	mov	QWORD PTR -24[rbp], rax
	mov	rax, QWORD PTR -8[rbp]
	mov	rax, QWORD PTR [rax]
	mov	r9, rax
	mov	rcx, QWORD PTR -24[rbp]
	mov	rdx, QWORD PTR -16[rbp]
	mov	rax, QWORD PTR -8[rbp]
	mov	r8, rcx
	mov	rcx, rax
	call	r9
	mov	QWORD PTR -32[rbp], rax
	mov	rax, QWORD PTR -32[rbp]
	add	rsp, 64
	pop	rbp
	ret
	.seh_endproc
	.globl	eb_parse_zero_or_more2f3f
	.def	eb_parse_zero_or_more2f3f;	.scl	2;	.type	32;	.endef
	.seh_proc	eb_parse_zero_or_more2f3f
eb_parse_zero_or_more2f3f:
	push	rbp
	.seh_pushreg	rbp
	mov	rbp, rsp
	.seh_setframe	rbp, 0
	sub	rsp, 64
	.seh_stackalloc	64
	.seh_endprologue
	mov	QWORD PTR 16[rbp], rcx
	mov	QWORD PTR 24[rbp], rdx
	mov	rax, QWORD PTR 16[rbp]
	add	rax, 16
	mov	rax, QWORD PTR [rax]
	mov	QWORD PTR -8[rbp], rax
	mov	rax, QWORD PTR 24[rbp]
	mov	QWORD PTR -16[rbp], rax
	mov	rax, QWORD PTR -8[rbp]
	mov	rax, QWORD PTR [rax]
	mov	r8, rax
	mov	rdx, QWORD PTR -16[rbp]
	mov	rax, QWORD PTR -8[rbp]
	mov	rcx, rax
	call	r8
	mov	QWORD PTR -24[rbp], rax
	mov	rax, QWORD PTR -24[rbp]
	add	rsp, 64
	pop	rbp
	ret
	.seh_endproc
	.globl	eb_parse_zero_or_more2f
	.def	eb_parse_zero_or_more2f;	.scl	2;	.type	32;	.endef
	.seh_proc	eb_parse_zero_or_more2f
eb_parse_zero_or_more2f:
	push	rbp
	.seh_pushreg	rbp
	mov	rbp, rsp
	.seh_setframe	rbp, 0
	sub	rsp, 208
	.seh_stackalloc	208
	.seh_endprologue
	mov	QWORD PTR 16[rbp], rcx
	mov	QWORD PTR 24[rbp], rdx
	mov	QWORD PTR 32[rbp], r8
	mov	QWORD PTR 40[rbp], r9
	mov	rax, QWORD PTR 24[rbp]
	mov	QWORD PTR -8[rbp], rax
	lea	rax, eb_parse_zero_or_more2f1f[rip]
	mov	QWORD PTR -80[rbp], rax
	mov	rax, QWORD PTR 16[rbp]
	add	rax, 8
	mov	rax, QWORD PTR [rax]
	mov	QWORD PTR -72[rbp], rax
	mov	rax, QWORD PTR 16[rbp]
	add	rax, 16
	mov	rax, QWORD PTR [rax]
	mov	QWORD PTR -64[rbp], rax
	mov	rax, QWORD PTR 16[rbp]
	add	rax, 24
	mov	rax, QWORD PTR [rax]
	mov	QWORD PTR -56[rbp], rax
	mov	rax, QWORD PTR 16[rbp]
	add	rax, 32
	mov	rax, QWORD PTR [rax]
	mov	QWORD PTR -48[rbp], rax
	mov	rax, QWORD PTR 40[rbp]
	mov	QWORD PTR -40[rbp], rax
	mov	rax, QWORD PTR 32[rbp]
	mov	QWORD PTR -32[rbp], rax
	mov	rax, QWORD PTR 24[rbp]
	mov	QWORD PTR -24[rbp], rax
	lea	rax, eb_parse_zero_or_more2f2f[rip]
	mov	QWORD PTR -128[rbp], rax
	mov	rax, QWORD PTR 16[rbp]
	add	rax, 16
	mov	rax, QWORD PTR [rax]
	mov	QWORD PTR -120[rbp], rax
	mov	rax, QWORD PTR 16[rbp]
	add	rax, 32
	mov	rax, QWORD PTR [rax]
	mov	QWORD PTR -112[rbp], rax
	mov	rax, QWORD PTR 32[rbp]
	mov	QWORD PTR -104[rbp], rax
	mov	rax, QWORD PTR 24[rbp]
	mov	QWORD PTR -96[rbp], rax
	lea	rax, eb_parse_zero_or_more2f3f[rip]
	mov	QWORD PTR -160[rbp], rax
	mov	rax, QWORD PTR 16[rbp]
	add	rax, 8
	mov	rax, QWORD PTR [rax]
	mov	QWORD PTR -152[rbp], rax
	mov	rax, QWORD PTR 40[rbp]
	mov	QWORD PTR -144[rbp], rax
	lea	rdx, -160[rbp]
	lea	r9, -128[rbp]
	lea	r8, -80[rbp]
	lea	rcx, eb_parse_zero_or_more[rip]
	mov	rax, QWORD PTR -8[rbp]
	mov	QWORD PTR 32[rsp], rdx
	mov	rdx, rax
	call	eb_parse_zero_or_more
	mov	QWORD PTR -16[rbp], rax
	mov	rax, QWORD PTR -16[rbp]
	add	rsp, 208
	pop	rbp
	ret
	.seh_endproc
	.globl	eb_parse_zero_or_more3f
	.def	eb_parse_zero_or_more3f;	.scl	2;	.type	32;	.endef
	.seh_proc	eb_parse_zero_or_more3f
eb_parse_zero_or_more3f:
	push	rbp
	.seh_pushreg	rbp
	mov	rbp, rsp
	.seh_setframe	rbp, 0
	sub	rsp, 64
	.seh_stackalloc	64
	.seh_endprologue
	mov	QWORD PTR 16[rbp], rcx
	mov	QWORD PTR 24[rbp], rdx
	mov	QWORD PTR 32[rbp], r8
	mov	rax, QWORD PTR 16[rbp]
	add	rax, 8
	mov	rax, QWORD PTR [rax]
	mov	QWORD PTR -8[rbp], rax
	mov	rax, QWORD PTR 24[rbp]
	mov	QWORD PTR -16[rbp], rax
	mov	rax, QWORD PTR 32[rbp]
	mov	QWORD PTR -24[rbp], rax
	mov	rax, QWORD PTR -8[rbp]
	mov	rax, QWORD PTR [rax]
	mov	r9, rax
	mov	rcx, QWORD PTR -24[rbp]
	mov	rdx, QWORD PTR -16[rbp]
	mov	rax, QWORD PTR -8[rbp]
	mov	r8, rcx
	mov	rcx, rax
	call	r9
	mov	QWORD PTR -32[rbp], rax
	mov	rax, QWORD PTR -32[rbp]
	add	rsp, 64
	pop	rbp
	ret
	.seh_endproc
	.globl	eb_parse_zero_or_more4f
	.def	eb_parse_zero_or_more4f;	.scl	2;	.type	32;	.endef
	.seh_proc	eb_parse_zero_or_more4f
eb_parse_zero_or_more4f:
	push	rbp
	.seh_pushreg	rbp
	mov	rbp, rsp
	.seh_setframe	rbp, 0
	sub	rsp, 64
	.seh_stackalloc	64
	.seh_endprologue
	mov	QWORD PTR 16[rbp], rcx
	mov	QWORD PTR 24[rbp], rdx
	mov	rax, QWORD PTR 16[rbp]
	add	rax, 8
	mov	rax, QWORD PTR [rax]
	mov	QWORD PTR -8[rbp], rax
	mov	QWORD PTR -16[rbp], 0
	mov	rax, QWORD PTR 16[rbp]
	add	rax, 16
	mov	rax, QWORD PTR [rax]
	mov	QWORD PTR -24[rbp], rax
	mov	rax, QWORD PTR -8[rbp]
	mov	rax, QWORD PTR [rax]
	mov	r9, rax
	mov	rcx, QWORD PTR -24[rbp]
	mov	rdx, QWORD PTR -16[rbp]
	mov	rax, QWORD PTR -8[rbp]
	mov	r8, rcx
	mov	rcx, rax
	call	r9
	mov	QWORD PTR -32[rbp], rax
	mov	rax, QWORD PTR -32[rbp]
	add	rsp, 64
	pop	rbp
	ret
	.seh_endproc
	.globl	eb_parse_zero_or_more
	.def	eb_parse_zero_or_more;	.scl	2;	.type	32;	.endef
	.seh_proc	eb_parse_zero_or_more
eb_parse_zero_or_more:
	push	rbp
	.seh_pushreg	rbp
	mov	rbp, rsp
	.seh_setframe	rbp, 0
	sub	rsp, 224
	.seh_stackalloc	224
	.seh_endprologue
	mov	QWORD PTR 16[rbp], rcx
	mov	QWORD PTR 24[rbp], rdx
	mov	QWORD PTR 32[rbp], r8
	mov	QWORD PTR 40[rbp], r9
	mov	rax, QWORD PTR 24[rbp]
	mov	QWORD PTR -8[rbp], rax
	lea	rax, eb_parse_zero_or_more1f[rip]
	mov	QWORD PTR -64[rbp], rax
	mov	rax, QWORD PTR 48[rbp]
	mov	QWORD PTR -56[rbp], rax
	mov	rax, QWORD PTR 40[rbp]
	mov	QWORD PTR -48[rbp], rax
	mov	rax, QWORD PTR 32[rbp]
	mov	QWORD PTR -40[rbp], rax
	mov	rax, QWORD PTR 24[rbp]
	mov	QWORD PTR -32[rbp], rax
	lea	rax, eb_parse_zero_or_more2f[rip]
	mov	QWORD PTR -112[rbp], rax
	mov	rax, QWORD PTR 48[rbp]
	mov	QWORD PTR -104[rbp], rax
	mov	rax, QWORD PTR 40[rbp]
	mov	QWORD PTR -96[rbp], rax
	mov	rax, QWORD PTR 32[rbp]
	mov	QWORD PTR -88[rbp], rax
	mov	rax, QWORD PTR 24[rbp]
	mov	QWORD PTR -80[rbp], rax
	lea	rax, eb_parse_zero_or_more3f[rip]
	mov	QWORD PTR -144[rbp], rax
	mov	rax, QWORD PTR 40[rbp]
	mov	QWORD PTR -136[rbp], rax
	mov	rax, QWORD PTR 24[rbp]
	mov	QWORD PTR -128[rbp], rax
	lea	rax, eb_parse_zero_or_more4f[rip]
	mov	QWORD PTR -176[rbp], rax
	mov	rax, QWORD PTR 40[rbp]
	mov	QWORD PTR -168[rbp], rax
	mov	rax, QWORD PTR 24[rbp]
	mov	QWORD PTR -160[rbp], rax
	lea	r8, -176[rbp]
	lea	rdx, -144[rbp]
	lea	r9, -112[rbp]
	lea	r10, -64[rbp]
	lea	rcx, eb_parse_and[rip]
	mov	rax, QWORD PTR -8[rbp]
	mov	QWORD PTR 40[rsp], r8
	mov	QWORD PTR 32[rsp], rdx
	mov	r8, r10
	mov	rdx, rax
	call	eb_parse_and
	mov	QWORD PTR -16[rbp], rax
	mov	rax, QWORD PTR -16[rbp]
	add	rsp, 224
	pop	rbp
	ret
	.seh_endproc
	.globl	eb_parse_one_or_more1f1f
	.def	eb_parse_one_or_more1f1f;	.scl	2;	.type	32;	.endef
	.seh_proc	eb_parse_one_or_more1f1f
eb_parse_one_or_more1f1f:
	push	rbp
	.seh_pushreg	rbp
	mov	rbp, rsp
	.seh_setframe	rbp, 0
	sub	rsp, 64
	.seh_stackalloc	64
	.seh_endprologue
	mov	QWORD PTR 16[rbp], rcx
	mov	QWORD PTR 24[rbp], rdx
	mov	QWORD PTR 32[rbp], r8
	mov	rax, QWORD PTR 16[rbp]
	add	rax, 24
	mov	rax, QWORD PTR [rax]
	mov	QWORD PTR -8[rbp], rax
	mov	rax, QWORD PTR 24[rbp]
	mov	QWORD PTR -16[rbp], rax
	mov	rax, QWORD PTR 32[rbp]
	mov	QWORD PTR -24[rbp], rax
	mov	rax, QWORD PTR -8[rbp]
	mov	rax, QWORD PTR [rax]
	mov	r9, rax
	mov	rcx, QWORD PTR -24[rbp]
	mov	rdx, QWORD PTR -16[rbp]
	mov	rax, QWORD PTR -8[rbp]
	mov	r8, rcx
	mov	rcx, rax
	call	r9
	mov	QWORD PTR -32[rbp], rax
	mov	rax, QWORD PTR -32[rbp]
	add	rsp, 64
	pop	rbp
	ret
	.seh_endproc
	.globl	eb_parse_one_or_more1f2f
	.def	eb_parse_one_or_more1f2f;	.scl	2;	.type	32;	.endef
	.seh_proc	eb_parse_one_or_more1f2f
eb_parse_one_or_more1f2f:
	push	rbp
	.seh_pushreg	rbp
	mov	rbp, rsp
	.seh_setframe	rbp, 0
	sub	rsp, 64
	.seh_stackalloc	64
	.seh_endprologue
	mov	QWORD PTR 16[rbp], rcx
	mov	QWORD PTR 24[rbp], rdx
	mov	rax, QWORD PTR 16[rbp]
	add	rax, 16
	mov	rax, QWORD PTR [rax]
	mov	QWORD PTR -8[rbp], rax
	mov	rax, QWORD PTR 24[rbp]
	mov	QWORD PTR -16[rbp], rax
	mov	rax, QWORD PTR -8[rbp]
	mov	rax, QWORD PTR [rax]
	mov	r8, rax
	mov	rdx, QWORD PTR -16[rbp]
	mov	rax, QWORD PTR -8[rbp]
	mov	rcx, rax
	call	r8
	mov	QWORD PTR -24[rbp], rax
	mov	rax, QWORD PTR -24[rbp]
	add	rsp, 64
	pop	rbp
	ret
	.seh_endproc
	.globl	eb_parse_one_or_more1f
	.def	eb_parse_one_or_more1f;	.scl	2;	.type	32;	.endef
	.seh_proc	eb_parse_one_or_more1f
eb_parse_one_or_more1f:
	push	rbp
	.seh_pushreg	rbp
	mov	rbp, rsp
	.seh_setframe	rbp, 0
	add	rsp, -128
	.seh_stackalloc	128
	.seh_endprologue
	mov	QWORD PTR 16[rbp], rcx
	mov	QWORD PTR 24[rbp], rdx
	mov	QWORD PTR 32[rbp], r8
	mov	QWORD PTR 40[rbp], r9
	mov	rax, QWORD PTR 16[rbp]
	add	rax, 24
	mov	rax, QWORD PTR [rax]
	mov	QWORD PTR -8[rbp], rax
	mov	rax, QWORD PTR 24[rbp]
	mov	QWORD PTR -16[rbp], rax
	lea	rax, eb_parse_one_or_more1f1f[rip]
	mov	QWORD PTR -64[rbp], rax
	mov	rax, QWORD PTR 16[rbp]
	add	rax, 16
	mov	rax, QWORD PTR [rax]
	mov	QWORD PTR -56[rbp], rax
	mov	rax, QWORD PTR 16[rbp]
	add	rax, 32
	mov	rax, QWORD PTR [rax]
	mov	QWORD PTR -48[rbp], rax
	mov	rax, QWORD PTR 32[rbp]
	mov	QWORD PTR -40[rbp], rax
	mov	rax, QWORD PTR 24[rbp]
	mov	QWORD PTR -32[rbp], rax
	lea	rax, eb_parse_one_or_more1f2f[rip]
	mov	QWORD PTR -96[rbp], rax
	mov	rax, QWORD PTR 16[rbp]
	add	rax, 8
	mov	rax, QWORD PTR [rax]
	mov	QWORD PTR -88[rbp], rax
	mov	rax, QWORD PTR 40[rbp]
	mov	QWORD PTR -80[rbp], rax
	mov	rax, QWORD PTR -8[rbp]
	mov	rax, QWORD PTR [rax]
	mov	r10, rax
	lea	r8, -96[rbp]
	lea	rcx, -64[rbp]
	mov	rdx, QWORD PTR -16[rbp]
	mov	rax, QWORD PTR -8[rbp]
	mov	r9, r8
	mov	r8, rcx
	mov	rcx, rax
	call	r10
	mov	QWORD PTR -24[rbp], rax
	mov	rax, QWORD PTR -24[rbp]
	sub	rsp, -128
	pop	rbp
	ret
	.seh_endproc
	.globl	eb_parse_one_or_more2f1f1f
	.def	eb_parse_one_or_more2f1f1f;	.scl	2;	.type	32;	.endef
	.seh_proc	eb_parse_one_or_more2f1f1f
eb_parse_one_or_more2f1f1f:
	push	rbp
	.seh_pushreg	rbp
	mov	rbp, rsp
	.seh_setframe	rbp, 0
	sub	rsp, 64
	.seh_stackalloc	64
	.seh_endprologue
	mov	QWORD PTR 16[rbp], rcx
	mov	QWORD PTR 24[rbp], rdx
	mov	QWORD PTR 32[rbp], r8
	mov	rax, QWORD PTR 16[rbp]
	add	rax, 40
	mov	rax, QWORD PTR [rax]
	mov	QWORD PTR -8[rbp], rax
	mov	rax, QWORD PTR 24[rbp]
	mov	QWORD PTR -16[rbp], rax
	mov	rax, QWORD PTR 32[rbp]
	mov	QWORD PTR -24[rbp], rax
	mov	rax, QWORD PTR -8[rbp]
	mov	rax, QWORD PTR [rax]
	mov	r9, rax
	mov	rcx, QWORD PTR -24[rbp]
	mov	rdx, QWORD PTR -16[rbp]
	mov	rax, QWORD PTR -8[rbp]
	mov	r8, rcx
	mov	rcx, rax
	call	r9
	mov	QWORD PTR -32[rbp], rax
	mov	rax, QWORD PTR -32[rbp]
	add	rsp, 64
	pop	rbp
	ret
	.seh_endproc
	.globl	eb_parse_one_or_more2f1f2f
	.def	eb_parse_one_or_more2f1f2f;	.scl	2;	.type	32;	.endef
	.seh_proc	eb_parse_one_or_more2f1f2f
eb_parse_one_or_more2f1f2f:
	push	rbp
	.seh_pushreg	rbp
	mov	rbp, rsp
	.seh_setframe	rbp, 0
	sub	rsp, 64
	.seh_stackalloc	64
	.seh_endprologue
	mov	QWORD PTR 16[rbp], rcx
	mov	QWORD PTR 24[rbp], rdx
	mov	rax, QWORD PTR 16[rbp]
	add	rax, 24
	mov	rax, QWORD PTR [rax]
	mov	QWORD PTR -8[rbp], rax
	mov	rax, QWORD PTR 24[rbp]
	mov	QWORD PTR -16[rbp], rax
	mov	rax, QWORD PTR -8[rbp]
	mov	rax, QWORD PTR [rax]
	mov	r8, rax
	mov	rdx, QWORD PTR -16[rbp]
	mov	rax, QWORD PTR -8[rbp]
	mov	rcx, rax
	call	r8
	mov	QWORD PTR -24[rbp], rax
	mov	rax, QWORD PTR -24[rbp]
	add	rsp, 64
	pop	rbp
	ret
	.seh_endproc
	.globl	eb_parse_one_or_more2f1f
	.def	eb_parse_one_or_more2f1f;	.scl	2;	.type	32;	.endef
	.seh_proc	eb_parse_one_or_more2f1f
eb_parse_one_or_more2f1f:
	push	rbp
	.seh_pushreg	rbp
	mov	rbp, rsp
	.seh_setframe	rbp, 0
	sub	rsp, 144
	.seh_stackalloc	144
	.seh_endprologue
	mov	QWORD PTR 16[rbp], rcx
	mov	QWORD PTR 24[rbp], rdx
	mov	QWORD PTR 32[rbp], r8
	mov	QWORD PTR 40[rbp], r9
	mov	rax, QWORD PTR 16[rbp]
	add	rax, 24
	mov	rax, QWORD PTR [rax]
	mov	QWORD PTR -8[rbp], rax
	mov	rax, QWORD PTR 24[rbp]
	mov	QWORD PTR -16[rbp], rax
	lea	rax, eb_parse_one_or_more2f1f1f[rip]
	mov	QWORD PTR -80[rbp], rax
	mov	rax, QWORD PTR 16[rbp]
	add	rax, 16
	mov	rax, QWORD PTR [rax]
	mov	QWORD PTR -72[rbp], rax
	mov	rax, QWORD PTR 16[rbp]
	add	rax, 32
	mov	rax, QWORD PTR [rax]
	mov	QWORD PTR -64[rbp], rax
	mov	rax, QWORD PTR 16[rbp]
	add	rax, 48
	mov	rax, QWORD PTR [rax]
	mov	QWORD PTR -56[rbp], rax
	mov	rax, QWORD PTR 16[rbp]
	add	rax, 56
	mov	rax, QWORD PTR [rax]
	mov	QWORD PTR -48[rbp], rax
	mov	rax, QWORD PTR 32[rbp]
	mov	QWORD PTR -40[rbp], rax
	mov	rax, QWORD PTR 24[rbp]
	mov	QWORD PTR -32[rbp], rax
	lea	rax, eb_parse_one_or_more2f1f2f[rip]
	mov	QWORD PTR -112[rbp], rax
	mov	rax, QWORD PTR 16[rbp]
	add	rax, 8
	mov	rax, QWORD PTR [rax]
	mov	QWORD PTR -104[rbp], rax
	mov	rax, QWORD PTR 16[rbp]
	add	rax, 40
	mov	rax, QWORD PTR [rax]
	mov	QWORD PTR -96[rbp], rax
	mov	rax, QWORD PTR 40[rbp]
	mov	QWORD PTR -88[rbp], rax
	mov	rax, QWORD PTR -8[rbp]
	mov	rax, QWORD PTR [rax]
	mov	r10, rax
	lea	r8, -112[rbp]
	lea	rcx, -80[rbp]
	mov	rdx, QWORD PTR -16[rbp]
	mov	rax, QWORD PTR -8[rbp]
	mov	r9, r8
	mov	r8, rcx
	mov	rcx, rax
	call	r10
	mov	QWORD PTR -24[rbp], rax
	mov	rax, QWORD PTR -24[rbp]
	add	rsp, 144
	pop	rbp
	ret
	.seh_endproc
	.globl	eb_parse_one_or_more2f2f
	.def	eb_parse_one_or_more2f2f;	.scl	2;	.type	32;	.endef
	.seh_proc	eb_parse_one_or_more2f2f
eb_parse_one_or_more2f2f:
	push	rbp
	.seh_pushreg	rbp
	mov	rbp, rsp
	.seh_setframe	rbp, 0
	sub	rsp, 64
	.seh_stackalloc	64
	.seh_endprologue
	mov	QWORD PTR 16[rbp], rcx
	mov	QWORD PTR 24[rbp], rdx
	mov	QWORD PTR 32[rbp], r8
	mov	rax, QWORD PTR 16[rbp]
	add	rax, 24
	mov	rax, QWORD PTR [rax]
	mov	QWORD PTR -8[rbp], rax
	mov	rax, QWORD PTR 24[rbp]
	mov	QWORD PTR -16[rbp], rax
	mov	rax, QWORD PTR 32[rbp]
	mov	QWORD PTR -24[rbp], rax
	mov	rax, QWORD PTR -8[rbp]
	mov	rax, QWORD PTR [rax]
	mov	r9, rax
	mov	rcx, QWORD PTR -24[rbp]
	mov	rdx, QWORD PTR -16[rbp]
	mov	rax, QWORD PTR -8[rbp]
	mov	r8, rcx
	mov	rcx, rax
	call	r9
	mov	QWORD PTR -32[rbp], rax
	mov	rax, QWORD PTR -32[rbp]
	add	rsp, 64
	pop	rbp
	ret
	.seh_endproc
	.globl	eb_parse_one_or_more2f3f
	.def	eb_parse_one_or_more2f3f;	.scl	2;	.type	32;	.endef
	.seh_proc	eb_parse_one_or_more2f3f
eb_parse_one_or_more2f3f:
	push	rbp
	.seh_pushreg	rbp
	mov	rbp, rsp
	.seh_setframe	rbp, 0
	sub	rsp, 64
	.seh_stackalloc	64
	.seh_endprologue
	mov	QWORD PTR 16[rbp], rcx
	mov	QWORD PTR 24[rbp], rdx
	mov	rax, QWORD PTR 16[rbp]
	add	rax, 16
	mov	rax, QWORD PTR [rax]
	mov	QWORD PTR -8[rbp], rax
	mov	rax, QWORD PTR 24[rbp]
	mov	QWORD PTR -16[rbp], rax
	mov	rax, QWORD PTR -8[rbp]
	mov	rax, QWORD PTR [rax]
	mov	r8, rax
	mov	rdx, QWORD PTR -16[rbp]
	mov	rax, QWORD PTR -8[rbp]
	mov	rcx, rax
	call	r8
	mov	QWORD PTR -24[rbp], rax
	mov	rax, QWORD PTR -24[rbp]
	add	rsp, 64
	pop	rbp
	ret
	.seh_endproc
	.globl	eb_parse_one_or_more2f
	.def	eb_parse_one_or_more2f;	.scl	2;	.type	32;	.endef
	.seh_proc	eb_parse_one_or_more2f
eb_parse_one_or_more2f:
	push	rbp
	.seh_pushreg	rbp
	mov	rbp, rsp
	.seh_setframe	rbp, 0
	sub	rsp, 208
	.seh_stackalloc	208
	.seh_endprologue
	mov	QWORD PTR 16[rbp], rcx
	mov	QWORD PTR 24[rbp], rdx
	mov	QWORD PTR 32[rbp], r8
	mov	QWORD PTR 40[rbp], r9
	mov	rax, QWORD PTR 24[rbp]
	mov	QWORD PTR -8[rbp], rax
	lea	rax, eb_parse_one_or_more2f1f[rip]
	mov	QWORD PTR -80[rbp], rax
	mov	rax, QWORD PTR 16[rbp]
	add	rax, 8
	mov	rax, QWORD PTR [rax]
	mov	QWORD PTR -72[rbp], rax
	mov	rax, QWORD PTR 16[rbp]
	add	rax, 16
	mov	rax, QWORD PTR [rax]
	mov	QWORD PTR -64[rbp], rax
	mov	rax, QWORD PTR 16[rbp]
	add	rax, 24
	mov	rax, QWORD PTR [rax]
	mov	QWORD PTR -56[rbp], rax
	mov	rax, QWORD PTR 16[rbp]
	add	rax, 32
	mov	rax, QWORD PTR [rax]
	mov	QWORD PTR -48[rbp], rax
	mov	rax, QWORD PTR 40[rbp]
	mov	QWORD PTR -40[rbp], rax
	mov	rax, QWORD PTR 32[rbp]
	mov	QWORD PTR -32[rbp], rax
	mov	rax, QWORD PTR 24[rbp]
	mov	QWORD PTR -24[rbp], rax
	lea	rax, eb_parse_one_or_more2f2f[rip]
	mov	QWORD PTR -128[rbp], rax
	mov	rax, QWORD PTR 16[rbp]
	add	rax, 16
	mov	rax, QWORD PTR [rax]
	mov	QWORD PTR -120[rbp], rax
	mov	rax, QWORD PTR 16[rbp]
	add	rax, 32
	mov	rax, QWORD PTR [rax]
	mov	QWORD PTR -112[rbp], rax
	mov	rax, QWORD PTR 32[rbp]
	mov	QWORD PTR -104[rbp], rax
	mov	rax, QWORD PTR 24[rbp]
	mov	QWORD PTR -96[rbp], rax
	lea	rax, eb_parse_one_or_more2f3f[rip]
	mov	QWORD PTR -160[rbp], rax
	mov	rax, QWORD PTR 16[rbp]
	add	rax, 8
	mov	rax, QWORD PTR [rax]
	mov	QWORD PTR -152[rbp], rax
	mov	rax, QWORD PTR 40[rbp]
	mov	QWORD PTR -144[rbp], rax
	lea	rdx, -160[rbp]
	lea	r9, -128[rbp]
	lea	r8, -80[rbp]
	lea	rcx, eb_parse_zero_or_more[rip]
	mov	rax, QWORD PTR -8[rbp]
	mov	QWORD PTR 32[rsp], rdx
	mov	rdx, rax
	call	eb_parse_zero_or_more
	mov	QWORD PTR -16[rbp], rax
	mov	rax, QWORD PTR -16[rbp]
	add	rsp, 208
	pop	rbp
	ret
	.seh_endproc
	.globl	eb_parse_one_or_more3f
	.def	eb_parse_one_or_more3f;	.scl	2;	.type	32;	.endef
	.seh_proc	eb_parse_one_or_more3f
eb_parse_one_or_more3f:
	push	rbp
	.seh_pushreg	rbp
	mov	rbp, rsp
	.seh_setframe	rbp, 0
	sub	rsp, 64
	.seh_stackalloc	64
	.seh_endprologue
	mov	QWORD PTR 16[rbp], rcx
	mov	QWORD PTR 24[rbp], rdx
	mov	QWORD PTR 32[rbp], r8
	mov	rax, QWORD PTR 16[rbp]
	add	rax, 8
	mov	rax, QWORD PTR [rax]
	mov	QWORD PTR -8[rbp], rax
	mov	rax, QWORD PTR 24[rbp]
	mov	QWORD PTR -16[rbp], rax
	mov	rax, QWORD PTR 32[rbp]
	mov	QWORD PTR -24[rbp], rax
	mov	rax, QWORD PTR -8[rbp]
	mov	rax, QWORD PTR [rax]
	mov	r9, rax
	mov	rcx, QWORD PTR -24[rbp]
	mov	rdx, QWORD PTR -16[rbp]
	mov	rax, QWORD PTR -8[rbp]
	mov	r8, rcx
	mov	rcx, rax
	call	r9
	mov	QWORD PTR -32[rbp], rax
	mov	rax, QWORD PTR -32[rbp]
	add	rsp, 64
	pop	rbp
	ret
	.seh_endproc
	.globl	eb_parse_one_or_more4f
	.def	eb_parse_one_or_more4f;	.scl	2;	.type	32;	.endef
	.seh_proc	eb_parse_one_or_more4f
eb_parse_one_or_more4f:
	push	rbp
	.seh_pushreg	rbp
	mov	rbp, rsp
	.seh_setframe	rbp, 0
	sub	rsp, 64
	.seh_stackalloc	64
	.seh_endprologue
	mov	QWORD PTR 16[rbp], rcx
	mov	QWORD PTR 24[rbp], rdx
	mov	rax, QWORD PTR 16[rbp]
	add	rax, 8
	mov	rax, QWORD PTR [rax]
	mov	QWORD PTR -8[rbp], rax
	mov	rax, QWORD PTR 24[rbp]
	mov	QWORD PTR -16[rbp], rax
	mov	rax, QWORD PTR -8[rbp]
	mov	rax, QWORD PTR [rax]
	mov	r8, rax
	mov	rdx, QWORD PTR -16[rbp]
	mov	rax, QWORD PTR -8[rbp]
	mov	rcx, rax
	call	r8
	mov	QWORD PTR -24[rbp], rax
	mov	rax, QWORD PTR -24[rbp]
	add	rsp, 64
	pop	rbp
	ret
	.seh_endproc
	.globl	eb_parse_one_or_more
	.def	eb_parse_one_or_more;	.scl	2;	.type	32;	.endef
	.seh_proc	eb_parse_one_or_more
eb_parse_one_or_more:
	push	rbp
	.seh_pushreg	rbp
	mov	rbp, rsp
	.seh_setframe	rbp, 0
	sub	rsp, 208
	.seh_stackalloc	208
	.seh_endprologue
	mov	QWORD PTR 16[rbp], rcx
	mov	QWORD PTR 24[rbp], rdx
	mov	QWORD PTR 32[rbp], r8
	mov	QWORD PTR 40[rbp], r9
	mov	rax, QWORD PTR 24[rbp]
	mov	QWORD PTR -8[rbp], rax
	lea	rax, eb_parse_one_or_more1f[rip]
	mov	QWORD PTR -64[rbp], rax
	mov	rax, QWORD PTR 48[rbp]
	mov	QWORD PTR -56[rbp], rax
	mov	rax, QWORD PTR 40[rbp]
	mov	QWORD PTR -48[rbp], rax
	mov	rax, QWORD PTR 32[rbp]
	mov	QWORD PTR -40[rbp], rax
	mov	rax, QWORD PTR 24[rbp]
	mov	QWORD PTR -32[rbp], rax
	lea	rax, eb_parse_one_or_more2f[rip]
	mov	QWORD PTR -112[rbp], rax
	mov	rax, QWORD PTR 48[rbp]
	mov	QWORD PTR -104[rbp], rax
	mov	rax, QWORD PTR 40[rbp]
	mov	QWORD PTR -96[rbp], rax
	mov	rax, QWORD PTR 32[rbp]
	mov	QWORD PTR -88[rbp], rax
	mov	rax, QWORD PTR 24[rbp]
	mov	QWORD PTR -80[rbp], rax
	lea	rax, eb_parse_one_or_more3f[rip]
	mov	QWORD PTR -144[rbp], rax
	mov	rax, QWORD PTR 40[rbp]
	mov	QWORD PTR -136[rbp], rax
	mov	rax, QWORD PTR 24[rbp]
	mov	QWORD PTR -128[rbp], rax
	lea	rax, eb_parse_one_or_more4f[rip]
	mov	QWORD PTR -160[rbp], rax
	mov	rax, QWORD PTR 48[rbp]
	mov	QWORD PTR -152[rbp], rax
	lea	r8, -160[rbp]
	lea	rdx, -144[rbp]
	lea	r9, -112[rbp]
	lea	r10, -64[rbp]
	lea	rcx, eb_parse_and[rip]
	mov	rax, QWORD PTR -8[rbp]
	mov	QWORD PTR 40[rsp], r8
	mov	QWORD PTR 32[rsp], rdx
	mov	r8, r10
	mov	rdx, rax
	call	eb_parse_and
	mov	QWORD PTR -16[rbp], rax
	mov	rax, QWORD PTR -16[rbp]
	add	rsp, 208
	pop	rbp
	ret
	.seh_endproc
	.globl	eb_binding_of_value
	.def	eb_binding_of_value;	.scl	2;	.type	32;	.endef
	.seh_proc	eb_binding_of_value
eb_binding_of_value:
	push	rbp
	.seh_pushreg	rbp
	mov	rbp, rsp
	.seh_setframe	rbp, 0
	sub	rsp, 16
	.seh_stackalloc	16
	.seh_endprologue
	mov	QWORD PTR 16[rbp], rcx
	mov	QWORD PTR -8[rbp], 0
	mov	rax, QWORD PTR -8[rbp]
	add	rsp, 16
	pop	rbp
	ret
	.seh_endproc
	.globl	eb_binding_of_lambda
	.def	eb_binding_of_lambda;	.scl	2;	.type	32;	.endef
	.seh_proc	eb_binding_of_lambda
eb_binding_of_lambda:
	push	rbp
	.seh_pushreg	rbp
	mov	rbp, rsp
	.seh_setframe	rbp, 0
	sub	rsp, 16
	.seh_stackalloc	16
	.seh_endprologue
	mov	QWORD PTR 16[rbp], rcx
	mov	QWORD PTR -8[rbp], 1
	mov	rax, QWORD PTR -8[rbp]
	add	rsp, 16
	pop	rbp
	ret
	.seh_endproc
	.globl	eb_binding_of_generic
	.def	eb_binding_of_generic;	.scl	2;	.type	32;	.endef
	.seh_proc	eb_binding_of_generic
eb_binding_of_generic:
	push	rbp
	.seh_pushreg	rbp
	mov	rbp, rsp
	.seh_setframe	rbp, 0
	sub	rsp, 16
	.seh_stackalloc	16
	.seh_endprologue
	mov	QWORD PTR 16[rbp], rcx
	mov	QWORD PTR -8[rbp], 2
	mov	rax, QWORD PTR -8[rbp]
	add	rsp, 16
	pop	rbp
	ret
	.seh_endproc
	.globl	eb_binding_value
	.def	eb_binding_value;	.scl	2;	.type	32;	.endef
	.seh_proc	eb_binding_value
eb_binding_value:
	push	rbp
	.seh_pushreg	rbp
	mov	rbp, rsp
	.seh_setframe	rbp, 0
	sub	rsp, 64
	.seh_stackalloc	64
	.seh_endprologue
	mov	QWORD PTR 16[rbp], rcx
	mov	QWORD PTR 24[rbp], rdx
	lea	rax, eb_binding_of_value[rip]
	mov	rcx, rax
	call	eb_binding_of_value
	mov	QWORD PTR -8[rbp], rax
	mov	rax, QWORD PTR 24[rbp]
	mov	QWORD PTR -16[rbp], rax
	lea	rcx, eb_cons[rip]
	mov	rdx, QWORD PTR -16[rbp]
	mov	rax, QWORD PTR -8[rbp]
	mov	r8, rdx
	mov	rdx, rax
	call	eb_cons
	mov	QWORD PTR -24[rbp], rax
	mov	rax, QWORD PTR -24[rbp]
	add	rsp, 64
	pop	rbp
	ret
	.seh_endproc
	.globl	eb_binding_lambda
	.def	eb_binding_lambda;	.scl	2;	.type	32;	.endef
	.seh_proc	eb_binding_lambda
eb_binding_lambda:
	push	rbp
	.seh_pushreg	rbp
	mov	rbp, rsp
	.seh_setframe	rbp, 0
	sub	rsp, 96
	.seh_stackalloc	96
	.seh_endprologue
	mov	QWORD PTR 16[rbp], rcx
	mov	QWORD PTR 24[rbp], rdx
	mov	QWORD PTR 32[rbp], r8
	mov	QWORD PTR 40[rbp], r9
	lea	rax, eb_binding_of_lambda[rip]
	mov	rcx, rax
	call	eb_binding_of_lambda
	mov	QWORD PTR -8[rbp], rax
	mov	rax, QWORD PTR 24[rbp]
	mov	QWORD PTR -16[rbp], rax
	mov	rax, QWORD PTR 32[rbp]
	mov	QWORD PTR -24[rbp], rax
	mov	rax, QWORD PTR 40[rbp]
	mov	QWORD PTR -32[rbp], rax
	lea	rcx, eb_cons[rip]
	mov	rdx, QWORD PTR -32[rbp]
	mov	rax, QWORD PTR -24[rbp]
	mov	r8, rdx
	mov	rdx, rax
	call	eb_cons
	mov	QWORD PTR -40[rbp], rax
	lea	rcx, eb_cons[rip]
	mov	rdx, QWORD PTR -40[rbp]
	mov	rax, QWORD PTR -16[rbp]
	mov	r8, rdx
	mov	rdx, rax
	call	eb_cons
	mov	QWORD PTR -48[rbp], rax
	lea	rcx, eb_cons[rip]
	mov	rdx, QWORD PTR -48[rbp]
	mov	rax, QWORD PTR -8[rbp]
	mov	r8, rdx
	mov	rdx, rax
	call	eb_cons
	mov	QWORD PTR -56[rbp], rax
	mov	rax, QWORD PTR -56[rbp]
	add	rsp, 96
	pop	rbp
	ret
	.seh_endproc
	.globl	eb_binding_generic
	.def	eb_binding_generic;	.scl	2;	.type	32;	.endef
	.seh_proc	eb_binding_generic
eb_binding_generic:
	push	rbp
	.seh_pushreg	rbp
	mov	rbp, rsp
	.seh_setframe	rbp, 0
	sub	rsp, 64
	.seh_stackalloc	64
	.seh_endprologue
	mov	QWORD PTR 16[rbp], rcx
	mov	QWORD PTR 24[rbp], rdx
	lea	rax, eb_binding_of_generic[rip]
	mov	rcx, rax
	call	eb_binding_of_generic
	mov	QWORD PTR -8[rbp], rax
	mov	rax, QWORD PTR 24[rbp]
	mov	QWORD PTR -16[rbp], rax
	lea	rcx, eb_cons[rip]
	mov	rdx, QWORD PTR -16[rbp]
	mov	rax, QWORD PTR -8[rbp]
	mov	r8, rdx
	mov	rdx, rax
	call	eb_cons
	mov	QWORD PTR -24[rbp], rax
	mov	rax, QWORD PTR -24[rbp]
	add	rsp, 64
	pop	rbp
	ret
	.seh_endproc
	.globl	eb_binding_is_value
	.def	eb_binding_is_value;	.scl	2;	.type	32;	.endef
	.seh_proc	eb_binding_is_value
eb_binding_is_value:
	push	rbp
	.seh_pushreg	rbp
	mov	rbp, rsp
	.seh_setframe	rbp, 0
	sub	rsp, 64
	.seh_stackalloc	64
	.seh_endprologue
	mov	QWORD PTR 16[rbp], rcx
	mov	QWORD PTR 24[rbp], rdx
	lea	rax, eb_binding_of_value[rip]
	mov	rcx, rax
	call	eb_binding_of_value
	mov	QWORD PTR -8[rbp], rax
	mov	rax, QWORD PTR 24[rbp]
	mov	QWORD PTR -16[rbp], rax
	lea	rcx, eb_car[rip]
	mov	rax, QWORD PTR -16[rbp]
	mov	rdx, rax
	call	eb_car
	mov	QWORD PTR -24[rbp], rax
	lea	rcx, eb_equal[rip]
	mov	rdx, QWORD PTR -24[rbp]
	mov	rax, QWORD PTR -8[rbp]
	mov	r8, rdx
	mov	rdx, rax
	call	eb_equal
	mov	QWORD PTR -32[rbp], rax
	mov	rax, QWORD PTR -32[rbp]
	add	rsp, 64
	pop	rbp
	ret
	.seh_endproc
	.globl	eb_binding_is_lambda
	.def	eb_binding_is_lambda;	.scl	2;	.type	32;	.endef
	.seh_proc	eb_binding_is_lambda
eb_binding_is_lambda:
	push	rbp
	.seh_pushreg	rbp
	mov	rbp, rsp
	.seh_setframe	rbp, 0
	sub	rsp, 64
	.seh_stackalloc	64
	.seh_endprologue
	mov	QWORD PTR 16[rbp], rcx
	mov	QWORD PTR 24[rbp], rdx
	lea	rax, eb_binding_of_lambda[rip]
	mov	rcx, rax
	call	eb_binding_of_lambda
	mov	QWORD PTR -8[rbp], rax
	mov	rax, QWORD PTR 24[rbp]
	mov	QWORD PTR -16[rbp], rax
	lea	rcx, eb_car[rip]
	mov	rax, QWORD PTR -16[rbp]
	mov	rdx, rax
	call	eb_car
	mov	QWORD PTR -24[rbp], rax
	lea	rcx, eb_equal[rip]
	mov	rdx, QWORD PTR -24[rbp]
	mov	rax, QWORD PTR -8[rbp]
	mov	r8, rdx
	mov	rdx, rax
	call	eb_equal
	mov	QWORD PTR -32[rbp], rax
	mov	rax, QWORD PTR -32[rbp]
	add	rsp, 64
	pop	rbp
	ret
	.seh_endproc
	.globl	eb_binding_is_generic
	.def	eb_binding_is_generic;	.scl	2;	.type	32;	.endef
	.seh_proc	eb_binding_is_generic
eb_binding_is_generic:
	push	rbp
	.seh_pushreg	rbp
	mov	rbp, rsp
	.seh_setframe	rbp, 0
	sub	rsp, 64
	.seh_stackalloc	64
	.seh_endprologue
	mov	QWORD PTR 16[rbp], rcx
	mov	QWORD PTR 24[rbp], rdx
	lea	rax, eb_binding_of_generic[rip]
	mov	rcx, rax
	call	eb_binding_of_generic
	mov	QWORD PTR -8[rbp], rax
	mov	rax, QWORD PTR 24[rbp]
	mov	QWORD PTR -16[rbp], rax
	lea	rcx, eb_car[rip]
	mov	rax, QWORD PTR -16[rbp]
	mov	rdx, rax
	call	eb_car
	mov	QWORD PTR -24[rbp], rax
	lea	rcx, eb_equal[rip]
	mov	rdx, QWORD PTR -24[rbp]
	mov	rax, QWORD PTR -8[rbp]
	mov	r8, rdx
	mov	rdx, rax
	call	eb_equal
	mov	QWORD PTR -32[rbp], rax
	mov	rax, QWORD PTR -32[rbp]
	add	rsp, 64
	pop	rbp
	ret
	.seh_endproc
	.globl	eb_get_binding_value1f
	.def	eb_get_binding_value1f;	.scl	2;	.type	32;	.endef
	.seh_proc	eb_get_binding_value1f
eb_get_binding_value1f:
	push	rbp
	.seh_pushreg	rbp
	mov	rbp, rsp
	.seh_setframe	rbp, 0
	sub	rsp, 48
	.seh_stackalloc	48
	.seh_endprologue
	mov	QWORD PTR 16[rbp], rcx
	mov	rax, QWORD PTR 16[rbp]
	add	rax, 8
	mov	rax, QWORD PTR [rax]
	mov	QWORD PTR -8[rbp], rax
	lea	rcx, eb_cdr[rip]
	mov	rax, QWORD PTR -8[rbp]
	mov	rdx, rax
	call	eb_cdr
	mov	QWORD PTR -16[rbp], rax
	mov	rax, QWORD PTR -16[rbp]
	add	rsp, 48
	pop	rbp
	ret
	.seh_endproc
	.globl	eb_get_binding_value2f1f
	.def	eb_get_binding_value2f1f;	.scl	2;	.type	32;	.endef
	.seh_proc	eb_get_binding_value2f1f
eb_get_binding_value2f1f:
	push	rbp
	.seh_pushreg	rbp
	mov	rbp, rsp
	.seh_setframe	rbp, 0
	sub	rsp, 48
	.seh_stackalloc	48
	.seh_endprologue
	mov	QWORD PTR 16[rbp], rcx
	mov	rax, QWORD PTR 16[rbp]
	add	rax, 8
	mov	rax, QWORD PTR [rax]
	mov	QWORD PTR -8[rbp], rax
	lea	rcx, eb_cdr[rip]
	mov	rax, QWORD PTR -8[rbp]
	mov	rdx, rax
	call	eb_cdr
	mov	QWORD PTR -16[rbp], rax
	mov	rax, QWORD PTR -16[rbp]
	add	rsp, 48
	pop	rbp
	ret
	.seh_endproc
	.globl	eb_get_binding_value2f2f
	.def	eb_get_binding_value2f2f;	.scl	2;	.type	32;	.endef
	.seh_proc	eb_get_binding_value2f2f
eb_get_binding_value2f2f:
	push	rbp
	.seh_pushreg	rbp
	mov	rbp, rsp
	.seh_setframe	rbp, 0
	sub	rsp, 64
	.seh_stackalloc	64
	.seh_endprologue
	mov	QWORD PTR 16[rbp], rcx
	mov	rax, QWORD PTR 16[rbp]
	add	rax, 8
	mov	rax, QWORD PTR [rax]
	mov	QWORD PTR -8[rbp], rax
	lea	rcx, eb_cdr[rip]
	mov	rax, QWORD PTR -8[rbp]
	mov	rdx, rax
	call	eb_cdr
	mov	QWORD PTR -16[rbp], rax
	lea	rcx, eb_car[rip]
	mov	rax, QWORD PTR -16[rbp]
	mov	rdx, rax
	call	eb_car
	mov	QWORD PTR -24[rbp], rax
	lea	rcx, eb_get_binding_value[rip]
	mov	rax, QWORD PTR -24[rbp]
	mov	rdx, rax
	call	eb_get_binding_value
	mov	QWORD PTR -32[rbp], rax
	mov	rax, QWORD PTR -32[rbp]
	add	rsp, 64
	pop	rbp
	ret
	.seh_endproc
	.globl	eb_get_binding_value2f
	.def	eb_get_binding_value2f;	.scl	2;	.type	32;	.endef
	.seh_proc	eb_get_binding_value2f
eb_get_binding_value2f:
	push	rbp
	.seh_pushreg	rbp
	mov	rbp, rsp
	.seh_setframe	rbp, 0
	sub	rsp, 96
	.seh_stackalloc	96
	.seh_endprologue
	mov	QWORD PTR 16[rbp], rcx
	mov	rax, QWORD PTR 16[rbp]
	add	rax, 8
	mov	rax, QWORD PTR [rax]
	mov	QWORD PTR -8[rbp], rax
	lea	rcx, eb_binding_is_generic[rip]
	mov	rax, QWORD PTR -8[rbp]
	mov	rdx, rax
	call	eb_binding_is_generic
	mov	QWORD PTR -16[rbp], rax
	lea	rax, eb_get_binding_value2f1f[rip]
	mov	QWORD PTR -48[rbp], rax
	mov	rax, QWORD PTR 16[rbp]
	add	rax, 8
	mov	rax, QWORD PTR [rax]
	mov	QWORD PTR -40[rbp], rax
	lea	rax, eb_get_binding_value2f2f[rip]
	mov	QWORD PTR -64[rbp], rax
	mov	rax, QWORD PTR 16[rbp]
	add	rax, 8
	mov	rax, QWORD PTR [rax]
	mov	QWORD PTR -56[rbp], rax
	lea	r8, -64[rbp]
	lea	rdx, -48[rbp]
	lea	rcx, eb_if[rip]
	mov	rax, QWORD PTR -16[rbp]
	mov	r9, r8
	mov	r8, rdx
	mov	rdx, rax
	call	eb_if
	mov	QWORD PTR -24[rbp], rax
	mov	rax, QWORD PTR -24[rbp]
	add	rsp, 96
	pop	rbp
	ret
	.seh_endproc
	.globl	eb_get_binding_value
	.def	eb_get_binding_value;	.scl	2;	.type	32;	.endef
	.seh_proc	eb_get_binding_value
eb_get_binding_value:
	push	rbp
	.seh_pushreg	rbp
	mov	rbp, rsp
	.seh_setframe	rbp, 0
	sub	rsp, 96
	.seh_stackalloc	96
	.seh_endprologue
	mov	QWORD PTR 16[rbp], rcx
	mov	QWORD PTR 24[rbp], rdx
	mov	rax, QWORD PTR 24[rbp]
	mov	QWORD PTR -8[rbp], rax
	lea	rcx, eb_binding_is_value[rip]
	mov	rax, QWORD PTR -8[rbp]
	mov	rdx, rax
	call	eb_binding_is_value
	mov	QWORD PTR -16[rbp], rax
	lea	rax, eb_get_binding_value1f[rip]
	mov	QWORD PTR -48[rbp], rax
	mov	rax, QWORD PTR 24[rbp]
	mov	QWORD PTR -40[rbp], rax
	lea	rax, eb_get_binding_value2f[rip]
	mov	QWORD PTR -64[rbp], rax
	mov	rax, QWORD PTR 24[rbp]
	mov	QWORD PTR -56[rbp], rax
	lea	r8, -64[rbp]
	lea	rdx, -48[rbp]
	lea	rcx, eb_if[rip]
	mov	rax, QWORD PTR -16[rbp]
	mov	r9, r8
	mov	r8, rdx
	mov	rdx, rax
	call	eb_if
	mov	QWORD PTR -24[rbp], rax
	mov	rax, QWORD PTR -24[rbp]
	add	rsp, 96
	pop	rbp
	ret
	.seh_endproc
	.globl	eb_get_binding_args
	.def	eb_get_binding_args;	.scl	2;	.type	32;	.endef
	.seh_proc	eb_get_binding_args
eb_get_binding_args:
	push	rbp
	.seh_pushreg	rbp
	mov	rbp, rsp
	.seh_setframe	rbp, 0
	sub	rsp, 64
	.seh_stackalloc	64
	.seh_endprologue
	mov	QWORD PTR 16[rbp], rcx
	mov	QWORD PTR 24[rbp], rdx
	mov	rax, QWORD PTR 24[rbp]
	mov	QWORD PTR -8[rbp], rax
	lea	rcx, eb_cdr[rip]
	mov	rax, QWORD PTR -8[rbp]
	mov	rdx, rax
	call	eb_cdr
	mov	QWORD PTR -16[rbp], rax
	lea	rcx, eb_cdr[rip]
	mov	rax, QWORD PTR -16[rbp]
	mov	rdx, rax
	call	eb_cdr
	mov	QWORD PTR -24[rbp], rax
	lea	rcx, eb_car[rip]
	mov	rax, QWORD PTR -24[rbp]
	mov	rdx, rax
	call	eb_car
	mov	QWORD PTR -32[rbp], rax
	mov	rax, QWORD PTR -32[rbp]
	add	rsp, 64
	pop	rbp
	ret
	.seh_endproc
	.globl	eb_get_binding_generics
	.def	eb_get_binding_generics;	.scl	2;	.type	32;	.endef
	.seh_proc	eb_get_binding_generics
eb_get_binding_generics:
	push	rbp
	.seh_pushreg	rbp
	mov	rbp, rsp
	.seh_setframe	rbp, 0
	sub	rsp, 64
	.seh_stackalloc	64
	.seh_endprologue
	mov	QWORD PTR 16[rbp], rcx
	mov	QWORD PTR 24[rbp], rdx
	mov	rax, QWORD PTR 24[rbp]
	mov	QWORD PTR -8[rbp], rax
	lea	rcx, eb_cdr[rip]
	mov	rax, QWORD PTR -8[rbp]
	mov	rdx, rax
	call	eb_cdr
	mov	QWORD PTR -16[rbp], rax
	lea	rcx, eb_cdr[rip]
	mov	rax, QWORD PTR -16[rbp]
	mov	rdx, rax
	call	eb_cdr
	mov	QWORD PTR -24[rbp], rax
	lea	rcx, eb_cdr[rip]
	mov	rax, QWORD PTR -24[rbp]
	mov	rdx, rax
	call	eb_cdr
	mov	QWORD PTR -32[rbp], rax
	mov	rax, QWORD PTR -32[rbp]
	add	rsp, 64
	pop	rbp
	ret
	.seh_endproc
	.globl	eb_name_table_append
	.def	eb_name_table_append;	.scl	2;	.type	32;	.endef
	.seh_proc	eb_name_table_append
eb_name_table_append:
	push	rbp
	.seh_pushreg	rbp
	mov	rbp, rsp
	.seh_setframe	rbp, 0
	sub	rsp, 64
	.seh_stackalloc	64
	.seh_endprologue
	mov	QWORD PTR 16[rbp], rcx
	mov	QWORD PTR 24[rbp], rdx
	mov	QWORD PTR 32[rbp], r8
	mov	rax, QWORD PTR 32[rbp]
	mov	QWORD PTR -8[rbp], rax
	mov	rax, QWORD PTR 24[rbp]
	mov	QWORD PTR -16[rbp], rax
	lea	rcx, eb_cons[rip]
	mov	rdx, QWORD PTR -16[rbp]
	mov	rax, QWORD PTR -8[rbp]
	mov	r8, rdx
	mov	rdx, rax
	call	eb_cons
	mov	QWORD PTR -24[rbp], rax
	mov	rax, QWORD PTR -24[rbp]
	add	rsp, 64
	pop	rbp
	ret
	.seh_endproc
	.globl	eb_name_table_lookup1f1f
	.def	eb_name_table_lookup1f1f;	.scl	2;	.type	32;	.endef
	.seh_proc	eb_name_table_lookup1f1f
eb_name_table_lookup1f1f:
	push	rbp
	.seh_pushreg	rbp
	mov	rbp, rsp
	.seh_setframe	rbp, 0
	sub	rsp, 48
	.seh_stackalloc	48
	.seh_endprologue
	mov	QWORD PTR 16[rbp], rcx
	mov	rax, QWORD PTR 16[rbp]
	add	rax, 8
	mov	rax, QWORD PTR [rax]
	mov	QWORD PTR -8[rbp], rax
	lea	rcx, eb_car[rip]
	mov	rax, QWORD PTR -8[rbp]
	mov	rdx, rax
	call	eb_car
	mov	QWORD PTR -16[rbp], rax
	mov	rax, QWORD PTR -16[rbp]
	add	rsp, 48
	pop	rbp
	ret
	.seh_endproc
	.globl	eb_name_table_lookup1f2f
	.def	eb_name_table_lookup1f2f;	.scl	2;	.type	32;	.endef
	.seh_proc	eb_name_table_lookup1f2f
eb_name_table_lookup1f2f:
	push	rbp
	.seh_pushreg	rbp
	mov	rbp, rsp
	.seh_setframe	rbp, 0
	sub	rsp, 64
	.seh_stackalloc	64
	.seh_endprologue
	mov	QWORD PTR 16[rbp], rcx
	mov	rax, QWORD PTR 16[rbp]
	add	rax, 16
	mov	rax, QWORD PTR [rax]
	mov	QWORD PTR -8[rbp], rax
	lea	rcx, eb_cdr[rip]
	mov	rax, QWORD PTR -8[rbp]
	mov	rdx, rax
	call	eb_cdr
	mov	QWORD PTR -16[rbp], rax
	mov	rax, QWORD PTR 16[rbp]
	add	rax, 8
	mov	rax, QWORD PTR [rax]
	mov	QWORD PTR -24[rbp], rax
	lea	rcx, eb_name_table_lookup[rip]
	mov	rdx, QWORD PTR -24[rbp]
	mov	rax, QWORD PTR -16[rbp]
	mov	r8, rdx
	mov	rdx, rax
	call	eb_name_table_lookup
	mov	QWORD PTR -32[rbp], rax
	mov	rax, QWORD PTR -32[rbp]
	add	rsp, 64
	pop	rbp
	ret
	.seh_endproc
	.globl	eb_name_table_lookup1f
	.def	eb_name_table_lookup1f;	.scl	2;	.type	32;	.endef
	.seh_proc	eb_name_table_lookup1f
eb_name_table_lookup1f:
	push	rbp
	.seh_pushreg	rbp
	mov	rbp, rsp
	.seh_setframe	rbp, 0
	add	rsp, -128
	.seh_stackalloc	128
	.seh_endprologue
	mov	QWORD PTR 16[rbp], rcx
	mov	rax, QWORD PTR 16[rbp]
	add	rax, 8
	mov	rax, QWORD PTR [rax]
	mov	QWORD PTR -8[rbp], rax
	mov	rax, QWORD PTR 16[rbp]
	add	rax, 16
	mov	rax, QWORD PTR [rax]
	mov	QWORD PTR -16[rbp], rax
	lea	rcx, eb_car[rip]
	mov	rax, QWORD PTR -16[rbp]
	mov	rdx, rax
	call	eb_car
	mov	QWORD PTR -24[rbp], rax
	lea	rcx, eb_get_binding_value[rip]
	mov	rax, QWORD PTR -24[rbp]
	mov	rdx, rax
	call	eb_get_binding_value
	mov	QWORD PTR -32[rbp], rax
	lea	rcx, eb_str_eq[rip]
	mov	rdx, QWORD PTR -32[rbp]
	mov	rax, QWORD PTR -8[rbp]
	mov	r8, rdx
	mov	rdx, rax
	call	eb_str_eq
	mov	QWORD PTR -40[rbp], rax
	lea	rax, eb_name_table_lookup1f1f[rip]
	mov	QWORD PTR -64[rbp], rax
	mov	rax, QWORD PTR 16[rbp]
	add	rax, 16
	mov	rax, QWORD PTR [rax]
	mov	QWORD PTR -56[rbp], rax
	lea	rax, eb_name_table_lookup1f2f[rip]
	mov	QWORD PTR -96[rbp], rax
	mov	rax, QWORD PTR 16[rbp]
	add	rax, 8
	mov	rax, QWORD PTR [rax]
	mov	QWORD PTR -88[rbp], rax
	mov	rax, QWORD PTR 16[rbp]
	add	rax, 16
	mov	rax, QWORD PTR [rax]
	mov	QWORD PTR -80[rbp], rax
	lea	r8, -96[rbp]
	lea	rdx, -64[rbp]
	lea	rcx, eb_if[rip]
	mov	rax, QWORD PTR -40[rbp]
	mov	r9, r8
	mov	r8, rdx
	mov	rdx, rax
	call	eb_if
	mov	QWORD PTR -48[rbp], rax
	mov	rax, QWORD PTR -48[rbp]
	sub	rsp, -128
	pop	rbp
	ret
	.seh_endproc
	.globl	eb_name_table_lookup
	.def	eb_name_table_lookup;	.scl	2;	.type	32;	.endef
	.seh_proc	eb_name_table_lookup
eb_name_table_lookup:
	push	rbp
	.seh_pushreg	rbp
	mov	rbp, rsp
	.seh_setframe	rbp, 0
	sub	rsp, 80
	.seh_stackalloc	80
	.seh_endprologue
	mov	QWORD PTR 16[rbp], rcx
	mov	QWORD PTR 24[rbp], rdx
	mov	QWORD PTR 32[rbp], r8
	mov	rax, QWORD PTR 24[rbp]
	mov	QWORD PTR -8[rbp], rax
	lea	rax, eb_name_table_lookup1f[rip]
	mov	QWORD PTR -48[rbp], rax
	mov	rax, QWORD PTR 32[rbp]
	mov	QWORD PTR -40[rbp], rax
	mov	rax, QWORD PTR 24[rbp]
	mov	QWORD PTR -32[rbp], rax
	lea	rdx, -48[rbp]
	lea	rcx, eb_and[rip]
	mov	rax, QWORD PTR -8[rbp]
	mov	r8, rdx
	mov	rdx, rax
	call	eb_and
	mov	QWORD PTR -16[rbp], rax
	mov	rax, QWORD PTR -16[rbp]
	add	rsp, 80
	pop	rbp
	ret
	.seh_endproc
	.globl	eb_binding_table
	.def	eb_binding_table;	.scl	2;	.type	32;	.endef
	.seh_proc	eb_binding_table
eb_binding_table:
	push	rbp
	.seh_pushreg	rbp
	mov	rbp, rsp
	.seh_setframe	rbp, 0
	sub	rsp, 64
	.seh_stackalloc	64
	.seh_endprologue
	mov	QWORD PTR 16[rbp], rcx
	mov	QWORD PTR -8[rbp], 0
	mov	QWORD PTR -16[rbp], 0
	lea	rcx, eb_cons[rip]
	mov	rdx, QWORD PTR -16[rbp]
	mov	rax, QWORD PTR -8[rbp]
	mov	r8, rdx
	mov	rdx, rax
	call	eb_cons
	mov	QWORD PTR -24[rbp], rax
	mov	rax, QWORD PTR -24[rbp]
	add	rsp, 64
	pop	rbp
	ret
	.seh_endproc
	.globl	eb_binding_table_append_generic
	.def	eb_binding_table_append_generic;	.scl	2;	.type	32;	.endef
	.seh_proc	eb_binding_table_append_generic
eb_binding_table_append_generic:
	push	rbp
	.seh_pushreg	rbp
	mov	rbp, rsp
	.seh_setframe	rbp, 0
	sub	rsp, 96
	.seh_stackalloc	96
	.seh_endprologue
	mov	QWORD PTR 16[rbp], rcx
	mov	QWORD PTR 24[rbp], rdx
	mov	QWORD PTR 32[rbp], r8
	mov	rax, QWORD PTR 24[rbp]
	mov	QWORD PTR -8[rbp], rax
	lea	rcx, eb_car[rip]
	mov	rax, QWORD PTR -8[rbp]
	mov	rdx, rax
	call	eb_car
	mov	QWORD PTR -16[rbp], rax
	mov	rax, QWORD PTR 24[rbp]
	mov	QWORD PTR -24[rbp], rax
	lea	rcx, eb_cdr[rip]
	mov	rax, QWORD PTR -24[rbp]
	mov	rdx, rax
	call	eb_cdr
	mov	QWORD PTR -32[rbp], rax
	mov	rax, QWORD PTR 32[rbp]
	mov	QWORD PTR -40[rbp], rax
	lea	rcx, eb_name_table_append[rip]
	mov	rdx, QWORD PTR -40[rbp]
	mov	rax, QWORD PTR -32[rbp]
	mov	r8, rdx
	mov	rdx, rax
	call	eb_name_table_append
	mov	QWORD PTR -48[rbp], rax
	lea	rcx, eb_cons[rip]
	mov	rdx, QWORD PTR -48[rbp]
	mov	rax, QWORD PTR -16[rbp]
	mov	r8, rdx
	mov	rdx, rax
	call	eb_cons
	mov	QWORD PTR -56[rbp], rax
	mov	rax, QWORD PTR -56[rbp]
	add	rsp, 96
	pop	rbp
	ret
	.seh_endproc
	.globl	eb_binding_table_append
	.def	eb_binding_table_append;	.scl	2;	.type	32;	.endef
	.seh_proc	eb_binding_table_append
eb_binding_table_append:
	push	rbp
	.seh_pushreg	rbp
	mov	rbp, rsp
	.seh_setframe	rbp, 0
	sub	rsp, 96
	.seh_stackalloc	96
	.seh_endprologue
	mov	QWORD PTR 16[rbp], rcx
	mov	QWORD PTR 24[rbp], rdx
	mov	QWORD PTR 32[rbp], r8
	mov	rax, QWORD PTR 24[rbp]
	mov	QWORD PTR -8[rbp], rax
	lea	rcx, eb_car[rip]
	mov	rax, QWORD PTR -8[rbp]
	mov	rdx, rax
	call	eb_car
	mov	QWORD PTR -16[rbp], rax
	mov	rax, QWORD PTR 32[rbp]
	mov	QWORD PTR -24[rbp], rax
	lea	rcx, eb_name_table_append[rip]
	mov	rdx, QWORD PTR -24[rbp]
	mov	rax, QWORD PTR -16[rbp]
	mov	r8, rdx
	mov	rdx, rax
	call	eb_name_table_append
	mov	QWORD PTR -32[rbp], rax
	mov	rax, QWORD PTR 24[rbp]
	mov	QWORD PTR -40[rbp], rax
	lea	rcx, eb_cdr[rip]
	mov	rax, QWORD PTR -40[rbp]
	mov	rdx, rax
	call	eb_cdr
	mov	QWORD PTR -48[rbp], rax
	lea	rcx, eb_cons[rip]
	mov	rdx, QWORD PTR -48[rbp]
	mov	rax, QWORD PTR -32[rbp]
	mov	r8, rdx
	mov	rdx, rax
	call	eb_cons
	mov	QWORD PTR -56[rbp], rax
	mov	rax, QWORD PTR -56[rbp]
	add	rsp, 96
	pop	rbp
	ret
	.seh_endproc
	.globl	eb_binding_table_lookup_generic
	.def	eb_binding_table_lookup_generic;	.scl	2;	.type	32;	.endef
	.seh_proc	eb_binding_table_lookup_generic
eb_binding_table_lookup_generic:
	push	rbp
	.seh_pushreg	rbp
	mov	rbp, rsp
	.seh_setframe	rbp, 0
	sub	rsp, 64
	.seh_stackalloc	64
	.seh_endprologue
	mov	QWORD PTR 16[rbp], rcx
	mov	QWORD PTR 24[rbp], rdx
	mov	QWORD PTR 32[rbp], r8
	mov	rax, QWORD PTR 24[rbp]
	mov	QWORD PTR -8[rbp], rax
	lea	rcx, eb_cdr[rip]
	mov	rax, QWORD PTR -8[rbp]
	mov	rdx, rax
	call	eb_cdr
	mov	QWORD PTR -16[rbp], rax
	mov	rax, QWORD PTR 32[rbp]
	mov	QWORD PTR -24[rbp], rax
	lea	rcx, eb_name_table_lookup[rip]
	mov	rdx, QWORD PTR -24[rbp]
	mov	rax, QWORD PTR -16[rbp]
	mov	r8, rdx
	mov	rdx, rax
	call	eb_name_table_lookup
	mov	QWORD PTR -32[rbp], rax
	mov	rax, QWORD PTR -32[rbp]
	add	rsp, 64
	pop	rbp
	ret
	.seh_endproc
	.globl	eb_binding_table_lookup1f
	.def	eb_binding_table_lookup1f;	.scl	2;	.type	32;	.endef
	.seh_proc	eb_binding_table_lookup1f
eb_binding_table_lookup1f:
	push	rbp
	.seh_pushreg	rbp
	mov	rbp, rsp
	.seh_setframe	rbp, 0
	sub	rsp, 48
	.seh_stackalloc	48
	.seh_endprologue
	mov	QWORD PTR 16[rbp], rcx
	mov	rax, QWORD PTR 16[rbp]
	add	rax, 8
	mov	rax, QWORD PTR [rax]
	mov	QWORD PTR -8[rbp], rax
	lea	rcx, eb_binding_value[rip]
	mov	rax, QWORD PTR -8[rbp]
	mov	rdx, rax
	call	eb_binding_value
	mov	QWORD PTR -16[rbp], rax
	mov	rax, QWORD PTR -16[rbp]
	add	rsp, 48
	pop	rbp
	ret
	.seh_endproc
	.globl	eb_binding_table_lookup
	.def	eb_binding_table_lookup;	.scl	2;	.type	32;	.endef
	.seh_proc	eb_binding_table_lookup
eb_binding_table_lookup:
	push	rbp
	.seh_pushreg	rbp
	mov	rbp, rsp
	.seh_setframe	rbp, 0
	sub	rsp, 96
	.seh_stackalloc	96
	.seh_endprologue
	mov	QWORD PTR 16[rbp], rcx
	mov	QWORD PTR 24[rbp], rdx
	mov	QWORD PTR 32[rbp], r8
	mov	rax, QWORD PTR 24[rbp]
	mov	QWORD PTR -8[rbp], rax
	lea	rcx, eb_car[rip]
	mov	rax, QWORD PTR -8[rbp]
	mov	rdx, rax
	call	eb_car
	mov	QWORD PTR -16[rbp], rax
	mov	rax, QWORD PTR 32[rbp]
	mov	QWORD PTR -24[rbp], rax
	lea	rcx, eb_name_table_lookup[rip]
	mov	rdx, QWORD PTR -24[rbp]
	mov	rax, QWORD PTR -16[rbp]
	mov	r8, rdx
	mov	rdx, rax
	call	eb_name_table_lookup
	mov	QWORD PTR -32[rbp], rax
	lea	rax, eb_binding_table_lookup1f[rip]
	mov	QWORD PTR -64[rbp], rax
	mov	rax, QWORD PTR 32[rbp]
	mov	QWORD PTR -56[rbp], rax
	lea	rdx, -64[rbp]
	lea	rcx, eb_or[rip]
	mov	rax, QWORD PTR -32[rbp]
	mov	r8, rdx
	mov	rdx, rax
	call	eb_or
	mov	QWORD PTR -40[rbp], rax
	mov	rax, QWORD PTR -40[rbp]
	add	rsp, 96
	pop	rbp
	ret
	.seh_endproc
	.globl	eb_ast_of_name
	.def	eb_ast_of_name;	.scl	2;	.type	32;	.endef
	.seh_proc	eb_ast_of_name
eb_ast_of_name:
	push	rbp
	.seh_pushreg	rbp
	mov	rbp, rsp
	.seh_setframe	rbp, 0
	sub	rsp, 16
	.seh_stackalloc	16
	.seh_endprologue
	mov	QWORD PTR 16[rbp], rcx
	mov	QWORD PTR -8[rbp], 0
	mov	rax, QWORD PTR -8[rbp]
	add	rsp, 16
	pop	rbp
	ret
	.seh_endproc
	.globl	eb_ast_of_call
	.def	eb_ast_of_call;	.scl	2;	.type	32;	.endef
	.seh_proc	eb_ast_of_call
eb_ast_of_call:
	push	rbp
	.seh_pushreg	rbp
	mov	rbp, rsp
	.seh_setframe	rbp, 0
	sub	rsp, 16
	.seh_stackalloc	16
	.seh_endprologue
	mov	QWORD PTR 16[rbp], rcx
	mov	QWORD PTR -8[rbp], 1
	mov	rax, QWORD PTR -8[rbp]
	add	rsp, 16
	pop	rbp
	ret
	.seh_endproc
	.globl	eb_ast_of_function
	.def	eb_ast_of_function;	.scl	2;	.type	32;	.endef
	.seh_proc	eb_ast_of_function
eb_ast_of_function:
	push	rbp
	.seh_pushreg	rbp
	mov	rbp, rsp
	.seh_setframe	rbp, 0
	sub	rsp, 16
	.seh_stackalloc	16
	.seh_endprologue
	mov	QWORD PTR 16[rbp], rcx
	mov	QWORD PTR -8[rbp], 2
	mov	rax, QWORD PTR -8[rbp]
	add	rsp, 16
	pop	rbp
	ret
	.seh_endproc
	.globl	eb_ast_of_number
	.def	eb_ast_of_number;	.scl	2;	.type	32;	.endef
	.seh_proc	eb_ast_of_number
eb_ast_of_number:
	push	rbp
	.seh_pushreg	rbp
	mov	rbp, rsp
	.seh_setframe	rbp, 0
	sub	rsp, 16
	.seh_stackalloc	16
	.seh_endprologue
	mov	QWORD PTR 16[rbp], rcx
	mov	QWORD PTR -8[rbp], 3
	mov	rax, QWORD PTR -8[rbp]
	add	rsp, 16
	pop	rbp
	ret
	.seh_endproc
	.globl	eb_ast_of_extern
	.def	eb_ast_of_extern;	.scl	2;	.type	32;	.endef
	.seh_proc	eb_ast_of_extern
eb_ast_of_extern:
	push	rbp
	.seh_pushreg	rbp
	mov	rbp, rsp
	.seh_setframe	rbp, 0
	sub	rsp, 16
	.seh_stackalloc	16
	.seh_endprologue
	mov	QWORD PTR 16[rbp], rcx
	mov	QWORD PTR -8[rbp], 4
	mov	rax, QWORD PTR -8[rbp]
	add	rsp, 16
	pop	rbp
	ret
	.seh_endproc
	.globl	eb_ast_of_lambda
	.def	eb_ast_of_lambda;	.scl	2;	.type	32;	.endef
	.seh_proc	eb_ast_of_lambda
eb_ast_of_lambda:
	push	rbp
	.seh_pushreg	rbp
	mov	rbp, rsp
	.seh_setframe	rbp, 0
	sub	rsp, 16
	.seh_stackalloc	16
	.seh_endprologue
	mov	QWORD PTR 16[rbp], rcx
	mov	QWORD PTR -8[rbp], 5
	mov	rax, QWORD PTR -8[rbp]
	add	rsp, 16
	pop	rbp
	ret
	.seh_endproc
	.globl	eb_ast_of_str
	.def	eb_ast_of_str;	.scl	2;	.type	32;	.endef
	.seh_proc	eb_ast_of_str
eb_ast_of_str:
	push	rbp
	.seh_pushreg	rbp
	mov	rbp, rsp
	.seh_setframe	rbp, 0
	sub	rsp, 16
	.seh_stackalloc	16
	.seh_endprologue
	mov	QWORD PTR 16[rbp], rcx
	mov	QWORD PTR -8[rbp], 6
	mov	rax, QWORD PTR -8[rbp]
	add	rsp, 16
	pop	rbp
	ret
	.seh_endproc
	.globl	eb_ast_name
	.def	eb_ast_name;	.scl	2;	.type	32;	.endef
	.seh_proc	eb_ast_name
eb_ast_name:
	push	rbp
	.seh_pushreg	rbp
	mov	rbp, rsp
	.seh_setframe	rbp, 0
	sub	rsp, 64
	.seh_stackalloc	64
	.seh_endprologue
	mov	QWORD PTR 16[rbp], rcx
	mov	QWORD PTR 24[rbp], rdx
	lea	rax, eb_ast_of_name[rip]
	mov	rcx, rax
	call	eb_ast_of_name
	mov	QWORD PTR -8[rbp], rax
	mov	rax, QWORD PTR 24[rbp]
	mov	QWORD PTR -16[rbp], rax
	lea	rcx, eb_cons[rip]
	mov	rdx, QWORD PTR -16[rbp]
	mov	rax, QWORD PTR -8[rbp]
	mov	r8, rdx
	mov	rdx, rax
	call	eb_cons
	mov	QWORD PTR -24[rbp], rax
	mov	rax, QWORD PTR -24[rbp]
	add	rsp, 64
	pop	rbp
	ret
	.seh_endproc
	.globl	eb_ast_call
	.def	eb_ast_call;	.scl	2;	.type	32;	.endef
	.seh_proc	eb_ast_call
eb_ast_call:
	push	rbp
	.seh_pushreg	rbp
	mov	rbp, rsp
	.seh_setframe	rbp, 0
	sub	rsp, 64
	.seh_stackalloc	64
	.seh_endprologue
	mov	QWORD PTR 16[rbp], rcx
	mov	QWORD PTR 24[rbp], rdx
	lea	rax, eb_ast_of_call[rip]
	mov	rcx, rax
	call	eb_ast_of_call
	mov	QWORD PTR -8[rbp], rax
	mov	rax, QWORD PTR 24[rbp]
	mov	QWORD PTR -16[rbp], rax
	lea	rcx, eb_cons[rip]
	mov	rdx, QWORD PTR -16[rbp]
	mov	rax, QWORD PTR -8[rbp]
	mov	r8, rdx
	mov	rdx, rax
	call	eb_cons
	mov	QWORD PTR -24[rbp], rax
	mov	rax, QWORD PTR -24[rbp]
	add	rsp, 64
	pop	rbp
	ret
	.seh_endproc
	.globl	eb_ast_function
	.def	eb_ast_function;	.scl	2;	.type	32;	.endef
	.seh_proc	eb_ast_function
eb_ast_function:
	push	rbp
	.seh_pushreg	rbp
	mov	rbp, rsp
	.seh_setframe	rbp, 0
	sub	rsp, 80
	.seh_stackalloc	80
	.seh_endprologue
	mov	QWORD PTR 16[rbp], rcx
	mov	QWORD PTR 24[rbp], rdx
	mov	QWORD PTR 32[rbp], r8
	lea	rax, eb_ast_of_function[rip]
	mov	rcx, rax
	call	eb_ast_of_function
	mov	QWORD PTR -8[rbp], rax
	mov	rax, QWORD PTR 24[rbp]
	mov	QWORD PTR -16[rbp], rax
	mov	rax, QWORD PTR 32[rbp]
	mov	QWORD PTR -24[rbp], rax
	lea	rcx, eb_cons[rip]
	mov	rdx, QWORD PTR -24[rbp]
	mov	rax, QWORD PTR -16[rbp]
	mov	r8, rdx
	mov	rdx, rax
	call	eb_cons
	mov	QWORD PTR -32[rbp], rax
	lea	rcx, eb_cons[rip]
	mov	rdx, QWORD PTR -32[rbp]
	mov	rax, QWORD PTR -8[rbp]
	mov	r8, rdx
	mov	rdx, rax
	call	eb_cons
	mov	QWORD PTR -40[rbp], rax
	mov	rax, QWORD PTR -40[rbp]
	add	rsp, 80
	pop	rbp
	ret
	.seh_endproc
	.globl	eb_ast_number
	.def	eb_ast_number;	.scl	2;	.type	32;	.endef
	.seh_proc	eb_ast_number
eb_ast_number:
	push	rbp
	.seh_pushreg	rbp
	mov	rbp, rsp
	.seh_setframe	rbp, 0
	sub	rsp, 64
	.seh_stackalloc	64
	.seh_endprologue
	mov	QWORD PTR 16[rbp], rcx
	mov	QWORD PTR 24[rbp], rdx
	lea	rax, eb_ast_of_number[rip]
	mov	rcx, rax
	call	eb_ast_of_number
	mov	QWORD PTR -8[rbp], rax
	mov	rax, QWORD PTR 24[rbp]
	mov	QWORD PTR -16[rbp], rax
	lea	rcx, eb_cons[rip]
	mov	rdx, QWORD PTR -16[rbp]
	mov	rax, QWORD PTR -8[rbp]
	mov	r8, rdx
	mov	rdx, rax
	call	eb_cons
	mov	QWORD PTR -24[rbp], rax
	mov	rax, QWORD PTR -24[rbp]
	add	rsp, 64
	pop	rbp
	ret
	.seh_endproc
	.globl	eb_ast_extern
	.def	eb_ast_extern;	.scl	2;	.type	32;	.endef
	.seh_proc	eb_ast_extern
eb_ast_extern:
	push	rbp
	.seh_pushreg	rbp
	mov	rbp, rsp
	.seh_setframe	rbp, 0
	sub	rsp, 64
	.seh_stackalloc	64
	.seh_endprologue
	mov	QWORD PTR 16[rbp], rcx
	mov	QWORD PTR 24[rbp], rdx
	lea	rax, eb_ast_of_extern[rip]
	mov	rcx, rax
	call	eb_ast_of_extern
	mov	QWORD PTR -8[rbp], rax
	mov	rax, QWORD PTR 24[rbp]
	mov	QWORD PTR -16[rbp], rax
	lea	rcx, eb_cons[rip]
	mov	rdx, QWORD PTR -16[rbp]
	mov	rax, QWORD PTR -8[rbp]
	mov	r8, rdx
	mov	rdx, rax
	call	eb_cons
	mov	QWORD PTR -24[rbp], rax
	mov	rax, QWORD PTR -24[rbp]
	add	rsp, 64
	pop	rbp
	ret
	.seh_endproc
	.globl	eb_ast_lambda
	.def	eb_ast_lambda;	.scl	2;	.type	32;	.endef
	.seh_proc	eb_ast_lambda
eb_ast_lambda:
	push	rbp
	.seh_pushreg	rbp
	mov	rbp, rsp
	.seh_setframe	rbp, 0
	sub	rsp, 80
	.seh_stackalloc	80
	.seh_endprologue
	mov	QWORD PTR 16[rbp], rcx
	mov	QWORD PTR 24[rbp], rdx
	mov	QWORD PTR 32[rbp], r8
	lea	rax, eb_ast_of_lambda[rip]
	mov	rcx, rax
	call	eb_ast_of_lambda
	mov	QWORD PTR -8[rbp], rax
	mov	rax, QWORD PTR 24[rbp]
	mov	QWORD PTR -16[rbp], rax
	mov	rax, QWORD PTR 32[rbp]
	mov	QWORD PTR -24[rbp], rax
	lea	rcx, eb_cons[rip]
	mov	rdx, QWORD PTR -24[rbp]
	mov	rax, QWORD PTR -16[rbp]
	mov	r8, rdx
	mov	rdx, rax
	call	eb_cons
	mov	QWORD PTR -32[rbp], rax
	lea	rcx, eb_cons[rip]
	mov	rdx, QWORD PTR -32[rbp]
	mov	rax, QWORD PTR -8[rbp]
	mov	r8, rdx
	mov	rdx, rax
	call	eb_cons
	mov	QWORD PTR -40[rbp], rax
	mov	rax, QWORD PTR -40[rbp]
	add	rsp, 80
	pop	rbp
	ret
	.seh_endproc
	.globl	eb_ast_str
	.def	eb_ast_str;	.scl	2;	.type	32;	.endef
	.seh_proc	eb_ast_str
eb_ast_str:
	push	rbp
	.seh_pushreg	rbp
	mov	rbp, rsp
	.seh_setframe	rbp, 0
	sub	rsp, 64
	.seh_stackalloc	64
	.seh_endprologue
	mov	QWORD PTR 16[rbp], rcx
	mov	QWORD PTR 24[rbp], rdx
	lea	rax, eb_ast_of_str[rip]
	mov	rcx, rax
	call	eb_ast_of_str
	mov	QWORD PTR -8[rbp], rax
	mov	rax, QWORD PTR 24[rbp]
	mov	QWORD PTR -16[rbp], rax
	lea	rcx, eb_cons[rip]
	mov	rdx, QWORD PTR -16[rbp]
	mov	rax, QWORD PTR -8[rbp]
	mov	r8, rdx
	mov	rdx, rax
	call	eb_cons
	mov	QWORD PTR -24[rbp], rax
	mov	rax, QWORD PTR -24[rbp]
	add	rsp, 64
	pop	rbp
	ret
	.seh_endproc
	.globl	eb_ast_is_name
	.def	eb_ast_is_name;	.scl	2;	.type	32;	.endef
	.seh_proc	eb_ast_is_name
eb_ast_is_name:
	push	rbp
	.seh_pushreg	rbp
	mov	rbp, rsp
	.seh_setframe	rbp, 0
	sub	rsp, 64
	.seh_stackalloc	64
	.seh_endprologue
	mov	QWORD PTR 16[rbp], rcx
	mov	QWORD PTR 24[rbp], rdx
	lea	rax, eb_ast_of_name[rip]
	mov	rcx, rax
	call	eb_ast_of_name
	mov	QWORD PTR -8[rbp], rax
	mov	rax, QWORD PTR 24[rbp]
	mov	QWORD PTR -16[rbp], rax
	lea	rcx, eb_car[rip]
	mov	rax, QWORD PTR -16[rbp]
	mov	rdx, rax
	call	eb_car
	mov	QWORD PTR -24[rbp], rax
	lea	rcx, eb_equal[rip]
	mov	rdx, QWORD PTR -24[rbp]
	mov	rax, QWORD PTR -8[rbp]
	mov	r8, rdx
	mov	rdx, rax
	call	eb_equal
	mov	QWORD PTR -32[rbp], rax
	mov	rax, QWORD PTR -32[rbp]
	add	rsp, 64
	pop	rbp
	ret
	.seh_endproc
	.globl	eb_ast_is_call
	.def	eb_ast_is_call;	.scl	2;	.type	32;	.endef
	.seh_proc	eb_ast_is_call
eb_ast_is_call:
	push	rbp
	.seh_pushreg	rbp
	mov	rbp, rsp
	.seh_setframe	rbp, 0
	sub	rsp, 64
	.seh_stackalloc	64
	.seh_endprologue
	mov	QWORD PTR 16[rbp], rcx
	mov	QWORD PTR 24[rbp], rdx
	lea	rax, eb_ast_of_call[rip]
	mov	rcx, rax
	call	eb_ast_of_call
	mov	QWORD PTR -8[rbp], rax
	mov	rax, QWORD PTR 24[rbp]
	mov	QWORD PTR -16[rbp], rax
	lea	rcx, eb_car[rip]
	mov	rax, QWORD PTR -16[rbp]
	mov	rdx, rax
	call	eb_car
	mov	QWORD PTR -24[rbp], rax
	lea	rcx, eb_equal[rip]
	mov	rdx, QWORD PTR -24[rbp]
	mov	rax, QWORD PTR -8[rbp]
	mov	r8, rdx
	mov	rdx, rax
	call	eb_equal
	mov	QWORD PTR -32[rbp], rax
	mov	rax, QWORD PTR -32[rbp]
	add	rsp, 64
	pop	rbp
	ret
	.seh_endproc
	.globl	eb_ast_is_function
	.def	eb_ast_is_function;	.scl	2;	.type	32;	.endef
	.seh_proc	eb_ast_is_function
eb_ast_is_function:
	push	rbp
	.seh_pushreg	rbp
	mov	rbp, rsp
	.seh_setframe	rbp, 0
	sub	rsp, 64
	.seh_stackalloc	64
	.seh_endprologue
	mov	QWORD PTR 16[rbp], rcx
	mov	QWORD PTR 24[rbp], rdx
	lea	rax, eb_ast_of_function[rip]
	mov	rcx, rax
	call	eb_ast_of_function
	mov	QWORD PTR -8[rbp], rax
	mov	rax, QWORD PTR 24[rbp]
	mov	QWORD PTR -16[rbp], rax
	lea	rcx, eb_car[rip]
	mov	rax, QWORD PTR -16[rbp]
	mov	rdx, rax
	call	eb_car
	mov	QWORD PTR -24[rbp], rax
	lea	rcx, eb_equal[rip]
	mov	rdx, QWORD PTR -24[rbp]
	mov	rax, QWORD PTR -8[rbp]
	mov	r8, rdx
	mov	rdx, rax
	call	eb_equal
	mov	QWORD PTR -32[rbp], rax
	mov	rax, QWORD PTR -32[rbp]
	add	rsp, 64
	pop	rbp
	ret
	.seh_endproc
	.globl	eb_ast_is_number
	.def	eb_ast_is_number;	.scl	2;	.type	32;	.endef
	.seh_proc	eb_ast_is_number
eb_ast_is_number:
	push	rbp
	.seh_pushreg	rbp
	mov	rbp, rsp
	.seh_setframe	rbp, 0
	sub	rsp, 64
	.seh_stackalloc	64
	.seh_endprologue
	mov	QWORD PTR 16[rbp], rcx
	mov	QWORD PTR 24[rbp], rdx
	lea	rax, eb_ast_of_number[rip]
	mov	rcx, rax
	call	eb_ast_of_number
	mov	QWORD PTR -8[rbp], rax
	mov	rax, QWORD PTR 24[rbp]
	mov	QWORD PTR -16[rbp], rax
	lea	rcx, eb_car[rip]
	mov	rax, QWORD PTR -16[rbp]
	mov	rdx, rax
	call	eb_car
	mov	QWORD PTR -24[rbp], rax
	lea	rcx, eb_equal[rip]
	mov	rdx, QWORD PTR -24[rbp]
	mov	rax, QWORD PTR -8[rbp]
	mov	r8, rdx
	mov	rdx, rax
	call	eb_equal
	mov	QWORD PTR -32[rbp], rax
	mov	rax, QWORD PTR -32[rbp]
	add	rsp, 64
	pop	rbp
	ret
	.seh_endproc
	.globl	eb_ast_is_extern
	.def	eb_ast_is_extern;	.scl	2;	.type	32;	.endef
	.seh_proc	eb_ast_is_extern
eb_ast_is_extern:
	push	rbp
	.seh_pushreg	rbp
	mov	rbp, rsp
	.seh_setframe	rbp, 0
	sub	rsp, 64
	.seh_stackalloc	64
	.seh_endprologue
	mov	QWORD PTR 16[rbp], rcx
	mov	QWORD PTR 24[rbp], rdx
	lea	rax, eb_ast_of_extern[rip]
	mov	rcx, rax
	call	eb_ast_of_extern
	mov	QWORD PTR -8[rbp], rax
	mov	rax, QWORD PTR 24[rbp]
	mov	QWORD PTR -16[rbp], rax
	lea	rcx, eb_car[rip]
	mov	rax, QWORD PTR -16[rbp]
	mov	rdx, rax
	call	eb_car
	mov	QWORD PTR -24[rbp], rax
	lea	rcx, eb_equal[rip]
	mov	rdx, QWORD PTR -24[rbp]
	mov	rax, QWORD PTR -8[rbp]
	mov	r8, rdx
	mov	rdx, rax
	call	eb_equal
	mov	QWORD PTR -32[rbp], rax
	mov	rax, QWORD PTR -32[rbp]
	add	rsp, 64
	pop	rbp
	ret
	.seh_endproc
	.globl	eb_ast_is_lambda
	.def	eb_ast_is_lambda;	.scl	2;	.type	32;	.endef
	.seh_proc	eb_ast_is_lambda
eb_ast_is_lambda:
	push	rbp
	.seh_pushreg	rbp
	mov	rbp, rsp
	.seh_setframe	rbp, 0
	sub	rsp, 64
	.seh_stackalloc	64
	.seh_endprologue
	mov	QWORD PTR 16[rbp], rcx
	mov	QWORD PTR 24[rbp], rdx
	lea	rax, eb_ast_of_lambda[rip]
	mov	rcx, rax
	call	eb_ast_of_lambda
	mov	QWORD PTR -8[rbp], rax
	mov	rax, QWORD PTR 24[rbp]
	mov	QWORD PTR -16[rbp], rax
	lea	rcx, eb_car[rip]
	mov	rax, QWORD PTR -16[rbp]
	mov	rdx, rax
	call	eb_car
	mov	QWORD PTR -24[rbp], rax
	lea	rcx, eb_equal[rip]
	mov	rdx, QWORD PTR -24[rbp]
	mov	rax, QWORD PTR -8[rbp]
	mov	r8, rdx
	mov	rdx, rax
	call	eb_equal
	mov	QWORD PTR -32[rbp], rax
	mov	rax, QWORD PTR -32[rbp]
	add	rsp, 64
	pop	rbp
	ret
	.seh_endproc
	.globl	eb_ast_is_str
	.def	eb_ast_is_str;	.scl	2;	.type	32;	.endef
	.seh_proc	eb_ast_is_str
eb_ast_is_str:
	push	rbp
	.seh_pushreg	rbp
	mov	rbp, rsp
	.seh_setframe	rbp, 0
	sub	rsp, 64
	.seh_stackalloc	64
	.seh_endprologue
	mov	QWORD PTR 16[rbp], rcx
	mov	QWORD PTR 24[rbp], rdx
	lea	rax, eb_ast_of_str[rip]
	mov	rcx, rax
	call	eb_ast_of_str
	mov	QWORD PTR -8[rbp], rax
	mov	rax, QWORD PTR 24[rbp]
	mov	QWORD PTR -16[rbp], rax
	lea	rcx, eb_car[rip]
	mov	rax, QWORD PTR -16[rbp]
	mov	rdx, rax
	call	eb_car
	mov	QWORD PTR -24[rbp], rax
	lea	rcx, eb_equal[rip]
	mov	rdx, QWORD PTR -24[rbp]
	mov	rax, QWORD PTR -8[rbp]
	mov	r8, rdx
	mov	rdx, rax
	call	eb_equal
	mov	QWORD PTR -32[rbp], rax
	mov	rax, QWORD PTR -32[rbp]
	add	rsp, 64
	pop	rbp
	ret
	.seh_endproc
	.globl	eb_binding_to_ast1f
	.def	eb_binding_to_ast1f;	.scl	2;	.type	32;	.endef
	.seh_proc	eb_binding_to_ast1f
eb_binding_to_ast1f:
	push	rbp
	.seh_pushreg	rbp
	mov	rbp, rsp
	.seh_setframe	rbp, 0
	sub	rsp, 64
	.seh_stackalloc	64
	.seh_endprologue
	mov	QWORD PTR 16[rbp], rcx
	mov	rax, QWORD PTR 16[rbp]
	add	rax, 8
	mov	rax, QWORD PTR [rax]
	mov	QWORD PTR -8[rbp], rax
	lea	rcx, eb_get_binding_value[rip]
	mov	rax, QWORD PTR -8[rbp]
	mov	rdx, rax
	call	eb_get_binding_value
	mov	QWORD PTR -16[rbp], rax
	lea	rcx, eb_ast_name[rip]
	mov	rax, QWORD PTR -16[rbp]
	mov	rdx, rax
	call	eb_ast_name
	mov	QWORD PTR -24[rbp], rax
	mov	rax, QWORD PTR -24[rbp]
	add	rsp, 64
	pop	rbp
	ret
	.seh_endproc
	.globl	eb_binding_to_ast2f1f011f
	.def	eb_binding_to_ast2f1f011f;	.scl	2;	.type	32;	.endef
	.seh_proc	eb_binding_to_ast2f1f011f
eb_binding_to_ast2f1f011f:
	push	rbp
	.seh_pushreg	rbp
	mov	rbp, rsp
	.seh_setframe	rbp, 0
	sub	rsp, 64
	.seh_stackalloc	64
	.seh_endprologue
	mov	QWORD PTR 16[rbp], rcx
	mov	QWORD PTR 24[rbp], rdx
	mov	rax, QWORD PTR 24[rbp]
	mov	QWORD PTR -8[rbp], rax
	lea	rcx, eb_get_binding_value[rip]
	mov	rax, QWORD PTR -8[rbp]
	mov	rdx, rax
	call	eb_get_binding_value
	mov	QWORD PTR -16[rbp], rax
	lea	rcx, eb_ast_name[rip]
	mov	rax, QWORD PTR -16[rbp]
	mov	rdx, rax
	call	eb_ast_name
	mov	QWORD PTR -24[rbp], rax
	mov	rax, QWORD PTR -24[rbp]
	add	rsp, 64
	pop	rbp
	ret
	.seh_endproc
	.globl	eb_binding_to_ast2f1f
	.def	eb_binding_to_ast2f1f;	.scl	2;	.type	32;	.endef
	.seh_proc	eb_binding_to_ast2f1f
eb_binding_to_ast2f1f:
	push	rbp
	.seh_pushreg	rbp
	mov	rbp, rsp
	.seh_setframe	rbp, 0
	sub	rsp, 112
	.seh_stackalloc	112
	.seh_endprologue
	mov	QWORD PTR 16[rbp], rcx
	mov	rax, QWORD PTR 16[rbp]
	add	rax, 8
	mov	rax, QWORD PTR [rax]
	mov	QWORD PTR -8[rbp], rax
	lea	rcx, eb_get_binding_value[rip]
	mov	rax, QWORD PTR -8[rbp]
	mov	rdx, rax
	call	eb_get_binding_value
	mov	QWORD PTR -16[rbp], rax
	lea	rcx, eb_ast_name[rip]
	mov	rax, QWORD PTR -16[rbp]
	mov	rdx, rax
	call	eb_ast_name
	mov	QWORD PTR -24[rbp], rax
	mov	rax, QWORD PTR 16[rbp]
	add	rax, 8
	mov	rax, QWORD PTR [rax]
	mov	QWORD PTR -32[rbp], rax
	lea	rcx, eb_get_binding_args[rip]
	mov	rax, QWORD PTR -32[rbp]
	mov	rdx, rax
	call	eb_get_binding_args
	mov	QWORD PTR -40[rbp], rax
	lea	rax, eb_binding_to_ast2f1f011f[rip]
	mov	QWORD PTR -72[rbp], rax
	lea	rdx, -72[rbp]
	lea	rcx, eb_map[rip]
	mov	rax, QWORD PTR -40[rbp]
	mov	r8, rdx
	mov	rdx, rax
	call	eb_map
	mov	QWORD PTR -48[rbp], rax
	lea	rcx, eb_cons[rip]
	mov	rdx, QWORD PTR -48[rbp]
	mov	rax, QWORD PTR -24[rbp]
	mov	r8, rdx
	mov	rdx, rax
	call	eb_cons
	mov	QWORD PTR -56[rbp], rax
	lea	rcx, eb_ast_call[rip]
	mov	rax, QWORD PTR -56[rbp]
	mov	rdx, rax
	call	eb_ast_call
	mov	QWORD PTR -64[rbp], rax
	mov	rax, QWORD PTR -64[rbp]
	add	rsp, 112
	pop	rbp
	ret
	.seh_endproc
	.globl	eb_binding_to_ast2f2f1f
	.def	eb_binding_to_ast2f2f1f;	.scl	2;	.type	32;	.endef
	.seh_proc	eb_binding_to_ast2f2f1f
eb_binding_to_ast2f2f1f:
	push	rbp
	.seh_pushreg	rbp
	mov	rbp, rsp
	.seh_setframe	rbp, 0
	sub	rsp, 64
	.seh_stackalloc	64
	.seh_endprologue
	mov	QWORD PTR 16[rbp], rcx
	mov	rax, QWORD PTR 16[rbp]
	add	rax, 8
	mov	rax, QWORD PTR [rax]
	mov	QWORD PTR -8[rbp], rax
	lea	rcx, eb_get_binding_value[rip]
	mov	rax, QWORD PTR -8[rbp]
	mov	rdx, rax
	call	eb_get_binding_value
	mov	QWORD PTR -16[rbp], rax
	lea	rcx, eb_ast_name[rip]
	mov	rax, QWORD PTR -16[rbp]
	mov	rdx, rax
	call	eb_ast_name
	mov	QWORD PTR -24[rbp], rax
	mov	rax, QWORD PTR -24[rbp]
	add	rsp, 64
	pop	rbp
	ret
	.seh_endproc
	.section .rdata,"dr"
.LC15:
	.ascii "???\0"
	.text
	.globl	eb_binding_to_ast2f2f2f
	.def	eb_binding_to_ast2f2f2f;	.scl	2;	.type	32;	.endef
	.seh_proc	eb_binding_to_ast2f2f2f
eb_binding_to_ast2f2f2f:
	push	rbp
	.seh_pushreg	rbp
	mov	rbp, rsp
	.seh_setframe	rbp, 0
	sub	rsp, 48
	.seh_stackalloc	48
	.seh_endprologue
	mov	QWORD PTR 16[rbp], rcx
	lea	rax, .LC15[rip]
	mov	rdx, rax
	lea	rax, eb_binding_to_ast2f2f2f0.72[rip]
	mov	rcx, rax
	call	ebz_stol
	mov	rax, QWORD PTR eb_binding_to_ast2f2f2f0.72[rip]
	lea	rcx, eb_ast_str[rip]
	mov	rdx, rax
	call	eb_ast_str
	mov	QWORD PTR -8[rbp], rax
	mov	rax, QWORD PTR -8[rbp]
	add	rsp, 48
	pop	rbp
	ret
	.seh_endproc
	.globl	eb_binding_to_ast2f2f
	.def	eb_binding_to_ast2f2f;	.scl	2;	.type	32;	.endef
	.seh_proc	eb_binding_to_ast2f2f
eb_binding_to_ast2f2f:
	push	rbp
	.seh_pushreg	rbp
	mov	rbp, rsp
	.seh_setframe	rbp, 0
	sub	rsp, 96
	.seh_stackalloc	96
	.seh_endprologue
	mov	QWORD PTR 16[rbp], rcx
	mov	rax, QWORD PTR 16[rbp]
	add	rax, 8
	mov	rax, QWORD PTR [rax]
	mov	QWORD PTR -8[rbp], rax
	lea	rcx, eb_binding_is_generic[rip]
	mov	rax, QWORD PTR -8[rbp]
	mov	rdx, rax
	call	eb_binding_is_generic
	mov	QWORD PTR -16[rbp], rax
	lea	rax, eb_binding_to_ast2f2f1f[rip]
	mov	QWORD PTR -48[rbp], rax
	mov	rax, QWORD PTR 16[rbp]
	add	rax, 8
	mov	rax, QWORD PTR [rax]
	mov	QWORD PTR -40[rbp], rax
	lea	rax, eb_binding_to_ast2f2f2f[rip]
	mov	QWORD PTR -56[rbp], rax
	lea	r8, -56[rbp]
	lea	rdx, -48[rbp]
	lea	rcx, eb_if[rip]
	mov	rax, QWORD PTR -16[rbp]
	mov	r9, r8
	mov	r8, rdx
	mov	rdx, rax
	call	eb_if
	mov	QWORD PTR -24[rbp], rax
	mov	rax, QWORD PTR -24[rbp]
	add	rsp, 96
	pop	rbp
	ret
	.seh_endproc
	.globl	eb_binding_to_ast2f
	.def	eb_binding_to_ast2f;	.scl	2;	.type	32;	.endef
	.seh_proc	eb_binding_to_ast2f
eb_binding_to_ast2f:
	push	rbp
	.seh_pushreg	rbp
	mov	rbp, rsp
	.seh_setframe	rbp, 0
	sub	rsp, 96
	.seh_stackalloc	96
	.seh_endprologue
	mov	QWORD PTR 16[rbp], rcx
	mov	rax, QWORD PTR 16[rbp]
	add	rax, 8
	mov	rax, QWORD PTR [rax]
	mov	QWORD PTR -8[rbp], rax
	lea	rcx, eb_binding_is_lambda[rip]
	mov	rax, QWORD PTR -8[rbp]
	mov	rdx, rax
	call	eb_binding_is_lambda
	mov	QWORD PTR -16[rbp], rax
	lea	rax, eb_binding_to_ast2f1f[rip]
	mov	QWORD PTR -48[rbp], rax
	mov	rax, QWORD PTR 16[rbp]
	add	rax, 8
	mov	rax, QWORD PTR [rax]
	mov	QWORD PTR -40[rbp], rax
	lea	rax, eb_binding_to_ast2f2f[rip]
	mov	QWORD PTR -64[rbp], rax
	mov	rax, QWORD PTR 16[rbp]
	add	rax, 8
	mov	rax, QWORD PTR [rax]
	mov	QWORD PTR -56[rbp], rax
	lea	r8, -64[rbp]
	lea	rdx, -48[rbp]
	lea	rcx, eb_if[rip]
	mov	rax, QWORD PTR -16[rbp]
	mov	r9, r8
	mov	r8, rdx
	mov	rdx, rax
	call	eb_if
	mov	QWORD PTR -24[rbp], rax
	mov	rax, QWORD PTR -24[rbp]
	add	rsp, 96
	pop	rbp
	ret
	.seh_endproc
	.globl	eb_binding_to_ast
	.def	eb_binding_to_ast;	.scl	2;	.type	32;	.endef
	.seh_proc	eb_binding_to_ast
eb_binding_to_ast:
	push	rbp
	.seh_pushreg	rbp
	mov	rbp, rsp
	.seh_setframe	rbp, 0
	sub	rsp, 96
	.seh_stackalloc	96
	.seh_endprologue
	mov	QWORD PTR 16[rbp], rcx
	mov	QWORD PTR 24[rbp], rdx
	mov	rax, QWORD PTR 24[rbp]
	mov	QWORD PTR -8[rbp], rax
	lea	rcx, eb_binding_is_value[rip]
	mov	rax, QWORD PTR -8[rbp]
	mov	rdx, rax
	call	eb_binding_is_value
	mov	QWORD PTR -16[rbp], rax
	lea	rax, eb_binding_to_ast1f[rip]
	mov	QWORD PTR -48[rbp], rax
	mov	rax, QWORD PTR 24[rbp]
	mov	QWORD PTR -40[rbp], rax
	lea	rax, eb_binding_to_ast2f[rip]
	mov	QWORD PTR -64[rbp], rax
	mov	rax, QWORD PTR 24[rbp]
	mov	QWORD PTR -56[rbp], rax
	lea	r8, -64[rbp]
	lea	rdx, -48[rbp]
	lea	rcx, eb_if[rip]
	mov	rax, QWORD PTR -16[rbp]
	mov	r9, r8
	mov	r8, rdx
	mov	rdx, rax
	call	eb_if
	mov	QWORD PTR -24[rbp], rax
	mov	rax, QWORD PTR -24[rbp]
	add	rsp, 96
	pop	rbp
	ret
	.seh_endproc
	.globl	eb_within_range1f
	.def	eb_within_range1f;	.scl	2;	.type	32;	.endef
	.seh_proc	eb_within_range1f
eb_within_range1f:
	push	rbp
	.seh_pushreg	rbp
	mov	rbp, rsp
	.seh_setframe	rbp, 0
	sub	rsp, 64
	.seh_stackalloc	64
	.seh_endprologue
	mov	QWORD PTR 16[rbp], rcx
	mov	rax, QWORD PTR 16[rbp]
	add	rax, 8
	mov	rax, QWORD PTR [rax]
	mov	QWORD PTR -8[rbp], rax
	mov	rax, QWORD PTR 16[rbp]
	add	rax, 16
	mov	rax, QWORD PTR [rax]
	mov	QWORD PTR -16[rbp], rax
	lea	rcx, eb_above[rip]
	mov	rdx, QWORD PTR -16[rbp]
	mov	rax, QWORD PTR -8[rbp]
	mov	r8, rdx
	mov	rdx, rax
	call	eb_above
	mov	QWORD PTR -24[rbp], rax
	lea	rcx, eb_not[rip]
	mov	rax, QWORD PTR -24[rbp]
	mov	rdx, rax
	call	eb_not
	mov	QWORD PTR -32[rbp], rax
	mov	rax, QWORD PTR -32[rbp]
	add	rsp, 64
	pop	rbp
	ret
	.seh_endproc
	.globl	eb_within_range
	.def	eb_within_range;	.scl	2;	.type	32;	.endef
	.seh_proc	eb_within_range
eb_within_range:
	push	rbp
	.seh_pushreg	rbp
	mov	rbp, rsp
	.seh_setframe	rbp, 0
	sub	rsp, 96
	.seh_stackalloc	96
	.seh_endprologue
	mov	QWORD PTR 16[rbp], rcx
	mov	QWORD PTR 24[rbp], rdx
	mov	QWORD PTR 32[rbp], r8
	mov	QWORD PTR 40[rbp], r9
	mov	rax, QWORD PTR 24[rbp]
	mov	QWORD PTR -8[rbp], rax
	mov	rax, QWORD PTR 40[rbp]
	mov	QWORD PTR -16[rbp], rax
	lea	rcx, eb_above[rip]
	mov	rdx, QWORD PTR -16[rbp]
	mov	rax, QWORD PTR -8[rbp]
	mov	r8, rdx
	mov	rdx, rax
	call	eb_above
	mov	QWORD PTR -24[rbp], rax
	lea	rcx, eb_not[rip]
	mov	rax, QWORD PTR -24[rbp]
	mov	rdx, rax
	call	eb_not
	mov	QWORD PTR -32[rbp], rax
	lea	rax, eb_within_range1f[rip]
	mov	QWORD PTR -64[rbp], rax
	mov	rax, QWORD PTR 32[rbp]
	mov	QWORD PTR -56[rbp], rax
	mov	rax, QWORD PTR 24[rbp]
	mov	QWORD PTR -48[rbp], rax
	lea	rdx, -64[rbp]
	lea	rcx, eb_and[rip]
	mov	rax, QWORD PTR -32[rbp]
	mov	r8, rdx
	mov	rdx, rax
	call	eb_and
	mov	QWORD PTR -40[rbp], rax
	mov	rax, QWORD PTR -40[rbp]
	add	rsp, 96
	pop	rbp
	ret
	.seh_endproc
	.globl	eb_is_word_char_init1f1f1f
	.def	eb_is_word_char_init1f1f1f;	.scl	2;	.type	32;	.endef
	.seh_proc	eb_is_word_char_init1f1f1f
eb_is_word_char_init1f1f1f:
	push	rbp
	.seh_pushreg	rbp
	mov	rbp, rsp
	.seh_setframe	rbp, 0
	sub	rsp, 64
	.seh_stackalloc	64
	.seh_endprologue
	mov	QWORD PTR 16[rbp], rcx
	mov	rax, QWORD PTR 16[rbp]
	add	rax, 8
	mov	rax, QWORD PTR [rax]
	mov	QWORD PTR -8[rbp], rax
	mov	QWORD PTR -16[rbp], 95
	lea	rcx, eb_equal[rip]
	mov	rdx, QWORD PTR -16[rbp]
	mov	rax, QWORD PTR -8[rbp]
	mov	r8, rdx
	mov	rdx, rax
	call	eb_equal
	mov	QWORD PTR -24[rbp], rax
	mov	rax, QWORD PTR -24[rbp]
	add	rsp, 64
	pop	rbp
	ret
	.seh_endproc
	.globl	eb_is_word_char_init1f1f
	.def	eb_is_word_char_init1f1f;	.scl	2;	.type	32;	.endef
	.seh_proc	eb_is_word_char_init1f1f
eb_is_word_char_init1f1f:
	push	rbp
	.seh_pushreg	rbp
	mov	rbp, rsp
	.seh_setframe	rbp, 0
	sub	rsp, 80
	.seh_stackalloc	80
	.seh_endprologue
	mov	QWORD PTR 16[rbp], rcx
	mov	rax, QWORD PTR 16[rbp]
	add	rax, 8
	mov	rax, QWORD PTR [rax]
	mov	QWORD PTR -8[rbp], rax
	mov	QWORD PTR -16[rbp], 45
	lea	rcx, eb_equal[rip]
	mov	rdx, QWORD PTR -16[rbp]
	mov	rax, QWORD PTR -8[rbp]
	mov	r8, rdx
	mov	rdx, rax
	call	eb_equal
	mov	QWORD PTR -24[rbp], rax
	lea	rax, eb_is_word_char_init1f1f1f[rip]
	mov	QWORD PTR -48[rbp], rax
	mov	rax, QWORD PTR 16[rbp]
	add	rax, 8
	mov	rax, QWORD PTR [rax]
	mov	QWORD PTR -40[rbp], rax
	lea	rdx, -48[rbp]
	lea	rcx, eb_or[rip]
	mov	rax, QWORD PTR -24[rbp]
	mov	r8, rdx
	mov	rdx, rax
	call	eb_or
	mov	QWORD PTR -32[rbp], rax
	mov	rax, QWORD PTR -32[rbp]
	add	rsp, 80
	pop	rbp
	ret
	.seh_endproc
	.globl	eb_is_word_char_init1f
	.def	eb_is_word_char_init1f;	.scl	2;	.type	32;	.endef
	.seh_proc	eb_is_word_char_init1f
eb_is_word_char_init1f:
	push	rbp
	.seh_pushreg	rbp
	mov	rbp, rsp
	.seh_setframe	rbp, 0
	sub	rsp, 96
	.seh_stackalloc	96
	.seh_endprologue
	mov	QWORD PTR 16[rbp], rcx
	mov	rax, QWORD PTR 16[rbp]
	add	rax, 8
	mov	rax, QWORD PTR [rax]
	mov	QWORD PTR -8[rbp], rax
	mov	QWORD PTR -16[rbp], 65
	mov	QWORD PTR -24[rbp], 90
	lea	rcx, eb_within_range[rip]
	mov	r8, QWORD PTR -24[rbp]
	mov	rdx, QWORD PTR -16[rbp]
	mov	rax, QWORD PTR -8[rbp]
	mov	r9, r8
	mov	r8, rdx
	mov	rdx, rax
	call	eb_within_range
	mov	QWORD PTR -32[rbp], rax
	lea	rax, eb_is_word_char_init1f1f[rip]
	mov	QWORD PTR -64[rbp], rax
	mov	rax, QWORD PTR 16[rbp]
	add	rax, 8
	mov	rax, QWORD PTR [rax]
	mov	QWORD PTR -56[rbp], rax
	lea	rdx, -64[rbp]
	lea	rcx, eb_or[rip]
	mov	rax, QWORD PTR -32[rbp]
	mov	r8, rdx
	mov	rdx, rax
	call	eb_or
	mov	QWORD PTR -40[rbp], rax
	mov	rax, QWORD PTR -40[rbp]
	add	rsp, 96
	pop	rbp
	ret
	.seh_endproc
	.globl	eb_is_word_char_init
	.def	eb_is_word_char_init;	.scl	2;	.type	32;	.endef
	.seh_proc	eb_is_word_char_init
eb_is_word_char_init:
	push	rbp
	.seh_pushreg	rbp
	mov	rbp, rsp
	.seh_setframe	rbp, 0
	sub	rsp, 96
	.seh_stackalloc	96
	.seh_endprologue
	mov	QWORD PTR 16[rbp], rcx
	mov	QWORD PTR 24[rbp], rdx
	mov	rax, QWORD PTR 24[rbp]
	mov	QWORD PTR -8[rbp], rax
	mov	QWORD PTR -16[rbp], 97
	mov	QWORD PTR -24[rbp], 122
	lea	rcx, eb_within_range[rip]
	mov	r8, QWORD PTR -24[rbp]
	mov	rdx, QWORD PTR -16[rbp]
	mov	rax, QWORD PTR -8[rbp]
	mov	r9, r8
	mov	r8, rdx
	mov	rdx, rax
	call	eb_within_range
	mov	QWORD PTR -32[rbp], rax
	lea	rax, eb_is_word_char_init1f[rip]
	mov	QWORD PTR -64[rbp], rax
	mov	rax, QWORD PTR 24[rbp]
	mov	QWORD PTR -56[rbp], rax
	lea	rdx, -64[rbp]
	lea	rcx, eb_or[rip]
	mov	rax, QWORD PTR -32[rbp]
	mov	r8, rdx
	mov	rdx, rax
	call	eb_or
	mov	QWORD PTR -40[rbp], rax
	mov	rax, QWORD PTR -40[rbp]
	add	rsp, 96
	pop	rbp
	ret
	.seh_endproc
	.globl	eb_is_digit
	.def	eb_is_digit;	.scl	2;	.type	32;	.endef
	.seh_proc	eb_is_digit
eb_is_digit:
	push	rbp
	.seh_pushreg	rbp
	mov	rbp, rsp
	.seh_setframe	rbp, 0
	sub	rsp, 64
	.seh_stackalloc	64
	.seh_endprologue
	mov	QWORD PTR 16[rbp], rcx
	mov	QWORD PTR 24[rbp], rdx
	mov	rax, QWORD PTR 24[rbp]
	mov	QWORD PTR -8[rbp], rax
	mov	QWORD PTR -16[rbp], 48
	mov	QWORD PTR -24[rbp], 57
	lea	rcx, eb_within_range[rip]
	mov	r8, QWORD PTR -24[rbp]
	mov	rdx, QWORD PTR -16[rbp]
	mov	rax, QWORD PTR -8[rbp]
	mov	r9, r8
	mov	r8, rdx
	mov	rdx, rax
	call	eb_within_range
	mov	QWORD PTR -32[rbp], rax
	mov	rax, QWORD PTR -32[rbp]
	add	rsp, 64
	pop	rbp
	ret
	.seh_endproc
	.globl	eb_is_word_char1f
	.def	eb_is_word_char1f;	.scl	2;	.type	32;	.endef
	.seh_proc	eb_is_word_char1f
eb_is_word_char1f:
	push	rbp
	.seh_pushreg	rbp
	mov	rbp, rsp
	.seh_setframe	rbp, 0
	sub	rsp, 48
	.seh_stackalloc	48
	.seh_endprologue
	mov	QWORD PTR 16[rbp], rcx
	mov	rax, QWORD PTR 16[rbp]
	add	rax, 8
	mov	rax, QWORD PTR [rax]
	mov	QWORD PTR -8[rbp], rax
	lea	rcx, eb_is_digit[rip]
	mov	rax, QWORD PTR -8[rbp]
	mov	rdx, rax
	call	eb_is_digit
	mov	QWORD PTR -16[rbp], rax
	mov	rax, QWORD PTR -16[rbp]
	add	rsp, 48
	pop	rbp
	ret
	.seh_endproc
	.globl	eb_is_word_char
	.def	eb_is_word_char;	.scl	2;	.type	32;	.endef
	.seh_proc	eb_is_word_char
eb_is_word_char:
	push	rbp
	.seh_pushreg	rbp
	mov	rbp, rsp
	.seh_setframe	rbp, 0
	sub	rsp, 80
	.seh_stackalloc	80
	.seh_endprologue
	mov	QWORD PTR 16[rbp], rcx
	mov	QWORD PTR 24[rbp], rdx
	mov	rax, QWORD PTR 24[rbp]
	mov	QWORD PTR -8[rbp], rax
	lea	rcx, eb_is_word_char_init[rip]
	mov	rax, QWORD PTR -8[rbp]
	mov	rdx, rax
	call	eb_is_word_char_init
	mov	QWORD PTR -16[rbp], rax
	lea	rax, eb_is_word_char1f[rip]
	mov	QWORD PTR -48[rbp], rax
	mov	rax, QWORD PTR 24[rbp]
	mov	QWORD PTR -40[rbp], rax
	lea	rdx, -48[rbp]
	lea	rcx, eb_or[rip]
	mov	rax, QWORD PTR -16[rbp]
	mov	r8, rdx
	mov	rdx, rax
	call	eb_or
	mov	QWORD PTR -24[rbp], rax
	mov	rax, QWORD PTR -24[rbp]
	add	rsp, 80
	pop	rbp
	ret
	.seh_endproc
	.globl	eb_parse_word1f1f
	.def	eb_parse_word1f1f;	.scl	2;	.type	32;	.endef
	.seh_proc	eb_parse_word1f1f
eb_parse_word1f1f:
	push	rbp
	.seh_pushreg	rbp
	mov	rbp, rsp
	.seh_setframe	rbp, 0
	sub	rsp, 48
	.seh_stackalloc	48
	.seh_endprologue
	mov	QWORD PTR 16[rbp], rcx
	mov	QWORD PTR 24[rbp], rdx
	mov	rax, QWORD PTR 24[rbp]
	mov	QWORD PTR -8[rbp], rax
	lea	rcx, eb_is_word_char_init[rip]
	mov	rax, QWORD PTR -8[rbp]
	mov	rdx, rax
	call	eb_is_word_char_init
	mov	QWORD PTR -16[rbp], rax
	mov	rax, QWORD PTR -16[rbp]
	add	rsp, 48
	pop	rbp
	ret
	.seh_endproc
	.globl	eb_parse_word1f2f
	.def	eb_parse_word1f2f;	.scl	2;	.type	32;	.endef
	.seh_proc	eb_parse_word1f2f
eb_parse_word1f2f:
	push	rbp
	.seh_pushreg	rbp
	mov	rbp, rsp
	.seh_setframe	rbp, 0
	sub	rsp, 64
	.seh_stackalloc	64
	.seh_endprologue
	mov	QWORD PTR 16[rbp], rcx
	mov	QWORD PTR 24[rbp], rdx
	mov	QWORD PTR 32[rbp], r8
	mov	rax, QWORD PTR 16[rbp]
	add	rax, 24
	mov	rax, QWORD PTR [rax]
	mov	QWORD PTR -8[rbp], rax
	mov	rax, QWORD PTR 24[rbp]
	mov	QWORD PTR -16[rbp], rax
	mov	rax, QWORD PTR 32[rbp]
	mov	QWORD PTR -24[rbp], rax
	mov	rax, QWORD PTR -8[rbp]
	mov	rax, QWORD PTR [rax]
	mov	r9, rax
	mov	rcx, QWORD PTR -24[rbp]
	mov	rdx, QWORD PTR -16[rbp]
	mov	rax, QWORD PTR -8[rbp]
	mov	r8, rcx
	mov	rcx, rax
	call	r9
	mov	QWORD PTR -32[rbp], rax
	mov	rax, QWORD PTR -32[rbp]
	add	rsp, 64
	pop	rbp
	ret
	.seh_endproc
	.section .rdata,"dr"
	.align 8
.LC16:
	.ascii "expected a start of word character\0"
	.text
	.globl	eb_parse_word1f3f
	.def	eb_parse_word1f3f;	.scl	2;	.type	32;	.endef
	.seh_proc	eb_parse_word1f3f
eb_parse_word1f3f:
	push	rbp
	.seh_pushreg	rbp
	mov	rbp, rsp
	.seh_setframe	rbp, 0
	sub	rsp, 80
	.seh_stackalloc	80
	.seh_endprologue
	mov	QWORD PTR 16[rbp], rcx
	mov	QWORD PTR 24[rbp], rdx
	mov	rax, QWORD PTR 16[rbp]
	add	rax, 24
	mov	rax, QWORD PTR [rax]
	mov	QWORD PTR -8[rbp], rax
	mov	rax, QWORD PTR 16[rbp]
	add	rax, 32
	mov	rax, QWORD PTR [rax]
	mov	QWORD PTR -16[rbp], rax
	lea	rcx, eb_state_pos[rip]
	mov	rax, QWORD PTR -16[rbp]
	mov	rdx, rax
	call	eb_state_pos
	mov	QWORD PTR -24[rbp], rax
	lea	rax, .LC16[rip]
	mov	rdx, rax
	lea	rax, eb_parse_word1f3f01.71[rip]
	mov	rcx, rax
	call	ebz_stol
	mov	rdx, QWORD PTR eb_parse_word1f3f01.71[rip]
	lea	rcx, eb_error_from_position[rip]
	mov	rax, QWORD PTR -24[rbp]
	mov	r8, rdx
	mov	rdx, rax
	call	eb_error_from_position
	mov	QWORD PTR -32[rbp], rax
	mov	rax, QWORD PTR -8[rbp]
	mov	rax, QWORD PTR [rax]
	mov	r8, rax
	mov	rdx, QWORD PTR -32[rbp]
	mov	rax, QWORD PTR -8[rbp]
	mov	rcx, rax
	call	r8
	mov	QWORD PTR -40[rbp], rax
	mov	rax, QWORD PTR -40[rbp]
	add	rsp, 80
	pop	rbp
	ret
	.seh_endproc
	.globl	eb_parse_word1f
	.def	eb_parse_word1f;	.scl	2;	.type	32;	.endef
	.seh_proc	eb_parse_word1f
eb_parse_word1f:
	push	rbp
	.seh_pushreg	rbp
	mov	rbp, rsp
	.seh_setframe	rbp, 0
	sub	rsp, 176
	.seh_stackalloc	176
	.seh_endprologue
	mov	QWORD PTR 16[rbp], rcx
	mov	QWORD PTR 24[rbp], rdx
	mov	QWORD PTR 32[rbp], r8
	mov	QWORD PTR 40[rbp], r9
	mov	rax, QWORD PTR 24[rbp]
	mov	QWORD PTR -8[rbp], rax
	lea	rcx, eb_strip[rip]
	mov	rax, QWORD PTR -8[rbp]
	mov	rdx, rax
	call	eb_strip
	mov	QWORD PTR -16[rbp], rax
	lea	rax, eb_parse_word1f1f[rip]
	mov	QWORD PTR -32[rbp], rax
	lea	rax, eb_parse_word1f2f[rip]
	mov	QWORD PTR -80[rbp], rax
	mov	rax, QWORD PTR 16[rbp]
	add	rax, 16
	mov	rax, QWORD PTR [rax]
	mov	QWORD PTR -72[rbp], rax
	mov	rax, QWORD PTR 16[rbp]
	add	rax, 24
	mov	rax, QWORD PTR [rax]
	mov	QWORD PTR -64[rbp], rax
	mov	rax, QWORD PTR 32[rbp]
	mov	QWORD PTR -56[rbp], rax
	mov	rax, QWORD PTR 24[rbp]
	mov	QWORD PTR -48[rbp], rax
	lea	rax, eb_parse_word1f3f[rip]
	mov	QWORD PTR -128[rbp], rax
	mov	rax, QWORD PTR 16[rbp]
	add	rax, 8
	mov	rax, QWORD PTR [rax]
	mov	QWORD PTR -120[rbp], rax
	mov	rax, QWORD PTR 16[rbp]
	add	rax, 24
	mov	rax, QWORD PTR [rax]
	mov	QWORD PTR -112[rbp], rax
	mov	rax, QWORD PTR 40[rbp]
	mov	QWORD PTR -104[rbp], rax
	mov	rax, QWORD PTR 24[rbp]
	mov	QWORD PTR -96[rbp], rax
	lea	rdx, -128[rbp]
	lea	r9, -80[rbp]
	lea	r8, -32[rbp]
	lea	rcx, eb_parse_if[rip]
	mov	rax, QWORD PTR -16[rbp]
	mov	QWORD PTR 32[rsp], rdx
	mov	rdx, rax
	call	eb_parse_if
	mov	QWORD PTR -24[rbp], rax
	mov	rax, QWORD PTR -24[rbp]
	add	rsp, 176
	pop	rbp
	ret
	.seh_endproc
	.globl	eb_parse_word2f1f1f
	.def	eb_parse_word2f1f1f;	.scl	2;	.type	32;	.endef
	.seh_proc	eb_parse_word2f1f1f
eb_parse_word2f1f1f:
	push	rbp
	.seh_pushreg	rbp
	mov	rbp, rsp
	.seh_setframe	rbp, 0
	sub	rsp, 48
	.seh_stackalloc	48
	.seh_endprologue
	mov	QWORD PTR 16[rbp], rcx
	mov	QWORD PTR 24[rbp], rdx
	mov	rax, QWORD PTR 24[rbp]
	mov	QWORD PTR -8[rbp], rax
	lea	rcx, eb_is_word_char[rip]
	mov	rax, QWORD PTR -8[rbp]
	mov	rdx, rax
	call	eb_is_word_char
	mov	QWORD PTR -16[rbp], rax
	mov	rax, QWORD PTR -16[rbp]
	add	rsp, 48
	pop	rbp
	ret
	.seh_endproc
	.globl	eb_parse_word2f1f2f
	.def	eb_parse_word2f1f2f;	.scl	2;	.type	32;	.endef
	.seh_proc	eb_parse_word2f1f2f
eb_parse_word2f1f2f:
	push	rbp
	.seh_pushreg	rbp
	mov	rbp, rsp
	.seh_setframe	rbp, 0
	sub	rsp, 64
	.seh_stackalloc	64
	.seh_endprologue
	mov	QWORD PTR 16[rbp], rcx
	mov	QWORD PTR 24[rbp], rdx
	mov	QWORD PTR 32[rbp], r8
	mov	rax, QWORD PTR 16[rbp]
	add	rax, 40
	mov	rax, QWORD PTR [rax]
	mov	QWORD PTR -8[rbp], rax
	mov	rax, QWORD PTR 24[rbp]
	mov	QWORD PTR -16[rbp], rax
	mov	rax, QWORD PTR 32[rbp]
	mov	QWORD PTR -24[rbp], rax
	mov	rax, QWORD PTR -8[rbp]
	mov	rax, QWORD PTR [rax]
	mov	r9, rax
	mov	rcx, QWORD PTR -24[rbp]
	mov	rdx, QWORD PTR -16[rbp]
	mov	rax, QWORD PTR -8[rbp]
	mov	r8, rcx
	mov	rcx, rax
	call	r9
	mov	QWORD PTR -32[rbp], rax
	mov	rax, QWORD PTR -32[rbp]
	add	rsp, 64
	pop	rbp
	ret
	.seh_endproc
	.section .rdata,"dr"
.LC17:
	.ascii "expected word character\0"
	.text
	.globl	eb_parse_word2f1f3f
	.def	eb_parse_word2f1f3f;	.scl	2;	.type	32;	.endef
	.seh_proc	eb_parse_word2f1f3f
eb_parse_word2f1f3f:
	push	rbp
	.seh_pushreg	rbp
	mov	rbp, rsp
	.seh_setframe	rbp, 0
	sub	rsp, 80
	.seh_stackalloc	80
	.seh_endprologue
	mov	QWORD PTR 16[rbp], rcx
	mov	QWORD PTR 24[rbp], rdx
	mov	rax, QWORD PTR 16[rbp]
	add	rax, 40
	mov	rax, QWORD PTR [rax]
	mov	QWORD PTR -8[rbp], rax
	mov	rax, QWORD PTR 16[rbp]
	add	rax, 48
	mov	rax, QWORD PTR [rax]
	mov	QWORD PTR -16[rbp], rax
	lea	rcx, eb_state_pos[rip]
	mov	rax, QWORD PTR -16[rbp]
	mov	rdx, rax
	call	eb_state_pos
	mov	QWORD PTR -24[rbp], rax
	lea	rax, .LC17[rip]
	mov	rdx, rax
	lea	rax, eb_parse_word2f1f3f01.70[rip]
	mov	rcx, rax
	call	ebz_stol
	mov	rdx, QWORD PTR eb_parse_word2f1f3f01.70[rip]
	lea	rcx, eb_error_from_position[rip]
	mov	rax, QWORD PTR -24[rbp]
	mov	r8, rdx
	mov	rdx, rax
	call	eb_error_from_position
	mov	QWORD PTR -32[rbp], rax
	mov	rax, QWORD PTR -8[rbp]
	mov	rax, QWORD PTR [rax]
	mov	r8, rax
	mov	rdx, QWORD PTR -32[rbp]
	mov	rax, QWORD PTR -8[rbp]
	mov	rcx, rax
	call	r8
	mov	QWORD PTR -40[rbp], rax
	mov	rax, QWORD PTR -40[rbp]
	add	rsp, 80
	pop	rbp
	ret
	.seh_endproc
	.globl	eb_parse_word2f1f
	.def	eb_parse_word2f1f;	.scl	2;	.type	32;	.endef
	.seh_proc	eb_parse_word2f1f
eb_parse_word2f1f:
	push	rbp
	.seh_pushreg	rbp
	mov	rbp, rsp
	.seh_setframe	rbp, 0
	sub	rsp, 192
	.seh_stackalloc	192
	.seh_endprologue
	mov	QWORD PTR 16[rbp], rcx
	mov	QWORD PTR 24[rbp], rdx
	mov	QWORD PTR 32[rbp], r8
	mov	QWORD PTR 40[rbp], r9
	mov	rax, QWORD PTR 24[rbp]
	mov	QWORD PTR -8[rbp], rax
	lea	rax, eb_parse_word2f1f1f[rip]
	mov	QWORD PTR -24[rbp], rax
	lea	rax, eb_parse_word2f1f2f[rip]
	mov	QWORD PTR -80[rbp], rax
	mov	rax, QWORD PTR 16[rbp]
	add	rax, 16
	mov	rax, QWORD PTR [rax]
	mov	QWORD PTR -72[rbp], rax
	mov	rax, QWORD PTR 16[rbp]
	add	rax, 24
	mov	rax, QWORD PTR [rax]
	mov	QWORD PTR -64[rbp], rax
	mov	rax, QWORD PTR 16[rbp]
	add	rax, 40
	mov	rax, QWORD PTR [rax]
	mov	QWORD PTR -56[rbp], rax
	mov	rax, QWORD PTR 16[rbp]
	add	rax, 48
	mov	rax, QWORD PTR [rax]
	mov	QWORD PTR -48[rbp], rax
	mov	rax, QWORD PTR 32[rbp]
	mov	QWORD PTR -40[rbp], rax
	mov	rax, QWORD PTR 24[rbp]
	mov	QWORD PTR -32[rbp], rax
	lea	rax, eb_parse_word2f1f3f[rip]
	mov	QWORD PTR -144[rbp], rax
	mov	rax, QWORD PTR 16[rbp]
	add	rax, 8
	mov	rax, QWORD PTR [rax]
	mov	QWORD PTR -136[rbp], rax
	mov	rax, QWORD PTR 16[rbp]
	add	rax, 24
	mov	rax, QWORD PTR [rax]
	mov	QWORD PTR -128[rbp], rax
	mov	rax, QWORD PTR 16[rbp]
	add	rax, 32
	mov	rax, QWORD PTR [rax]
	mov	QWORD PTR -120[rbp], rax
	mov	rax, QWORD PTR 16[rbp]
	add	rax, 48
	mov	rax, QWORD PTR [rax]
	mov	QWORD PTR -112[rbp], rax
	mov	rax, QWORD PTR 40[rbp]
	mov	QWORD PTR -104[rbp], rax
	mov	rax, QWORD PTR 24[rbp]
	mov	QWORD PTR -96[rbp], rax
	lea	rdx, -144[rbp]
	lea	r9, -80[rbp]
	lea	r8, -24[rbp]
	lea	rcx, eb_parse_if[rip]
	mov	rax, QWORD PTR -8[rbp]
	mov	QWORD PTR 32[rsp], rdx
	mov	rdx, rax
	call	eb_parse_if
	mov	QWORD PTR -16[rbp], rax
	mov	rax, QWORD PTR -16[rbp]
	add	rsp, 192
	pop	rbp
	ret
	.seh_endproc
	.globl	eb_parse_word2f2f
	.def	eb_parse_word2f2f;	.scl	2;	.type	32;	.endef
	.seh_proc	eb_parse_word2f2f
eb_parse_word2f2f:
	push	rbp
	.seh_pushreg	rbp
	mov	rbp, rsp
	.seh_setframe	rbp, 0
	sub	rsp, 64
	.seh_stackalloc	64
	.seh_endprologue
	mov	QWORD PTR 16[rbp], rcx
	mov	QWORD PTR 24[rbp], rdx
	mov	QWORD PTR 32[rbp], r8
	mov	rax, QWORD PTR 16[rbp]
	add	rax, 24
	mov	rax, QWORD PTR [rax]
	mov	QWORD PTR -8[rbp], rax
	mov	rax, QWORD PTR 24[rbp]
	mov	QWORD PTR -16[rbp], rax
	mov	rax, QWORD PTR 32[rbp]
	mov	QWORD PTR -24[rbp], rax
	mov	rax, QWORD PTR -8[rbp]
	mov	rax, QWORD PTR [rax]
	mov	r9, rax
	mov	rcx, QWORD PTR -24[rbp]
	mov	rdx, QWORD PTR -16[rbp]
	mov	rax, QWORD PTR -8[rbp]
	mov	r8, rcx
	mov	rcx, rax
	call	r9
	mov	QWORD PTR -32[rbp], rax
	mov	rax, QWORD PTR -32[rbp]
	add	rsp, 64
	pop	rbp
	ret
	.seh_endproc
	.globl	eb_parse_word2f3f
	.def	eb_parse_word2f3f;	.scl	2;	.type	32;	.endef
	.seh_proc	eb_parse_word2f3f
eb_parse_word2f3f:
	push	rbp
	.seh_pushreg	rbp
	mov	rbp, rsp
	.seh_setframe	rbp, 0
	sub	rsp, 64
	.seh_stackalloc	64
	.seh_endprologue
	mov	QWORD PTR 16[rbp], rcx
	mov	QWORD PTR 24[rbp], rdx
	mov	rax, QWORD PTR 16[rbp]
	add	rax, 16
	mov	rax, QWORD PTR [rax]
	mov	QWORD PTR -8[rbp], rax
	mov	rax, QWORD PTR 24[rbp]
	mov	QWORD PTR -16[rbp], rax
	mov	rax, QWORD PTR -8[rbp]
	mov	rax, QWORD PTR [rax]
	mov	r8, rax
	mov	rdx, QWORD PTR -16[rbp]
	mov	rax, QWORD PTR -8[rbp]
	mov	rcx, rax
	call	r8
	mov	QWORD PTR -24[rbp], rax
	mov	rax, QWORD PTR -24[rbp]
	add	rsp, 64
	pop	rbp
	ret
	.seh_endproc
	.globl	eb_parse_word2f
	.def	eb_parse_word2f;	.scl	2;	.type	32;	.endef
	.seh_proc	eb_parse_word2f
eb_parse_word2f:
	push	rbp
	.seh_pushreg	rbp
	mov	rbp, rsp
	.seh_setframe	rbp, 0
	sub	rsp, 208
	.seh_stackalloc	208
	.seh_endprologue
	mov	QWORD PTR 16[rbp], rcx
	mov	QWORD PTR 24[rbp], rdx
	mov	QWORD PTR 32[rbp], r8
	mov	QWORD PTR 40[rbp], r9
	mov	rax, QWORD PTR 24[rbp]
	mov	QWORD PTR -8[rbp], rax
	lea	rax, eb_parse_word2f1f[rip]
	mov	QWORD PTR -80[rbp], rax
	mov	rax, QWORD PTR 16[rbp]
	add	rax, 8
	mov	rax, QWORD PTR [rax]
	mov	QWORD PTR -72[rbp], rax
	mov	rax, QWORD PTR 16[rbp]
	add	rax, 16
	mov	rax, QWORD PTR [rax]
	mov	QWORD PTR -64[rbp], rax
	mov	rax, QWORD PTR 16[rbp]
	add	rax, 24
	mov	rax, QWORD PTR [rax]
	mov	QWORD PTR -56[rbp], rax
	mov	rax, QWORD PTR 40[rbp]
	mov	QWORD PTR -48[rbp], rax
	mov	rax, QWORD PTR 32[rbp]
	mov	QWORD PTR -40[rbp], rax
	mov	rax, QWORD PTR 24[rbp]
	mov	QWORD PTR -32[rbp], rax
	lea	rax, eb_parse_word2f2f[rip]
	mov	QWORD PTR -128[rbp], rax
	mov	rax, QWORD PTR 16[rbp]
	add	rax, 16
	mov	rax, QWORD PTR [rax]
	mov	QWORD PTR -120[rbp], rax
	mov	rax, QWORD PTR 16[rbp]
	add	rax, 24
	mov	rax, QWORD PTR [rax]
	mov	QWORD PTR -112[rbp], rax
	mov	rax, QWORD PTR 32[rbp]
	mov	QWORD PTR -104[rbp], rax
	mov	rax, QWORD PTR 24[rbp]
	mov	QWORD PTR -96[rbp], rax
	lea	rax, eb_parse_word2f3f[rip]
	mov	QWORD PTR -160[rbp], rax
	mov	rax, QWORD PTR 16[rbp]
	add	rax, 8
	mov	rax, QWORD PTR [rax]
	mov	QWORD PTR -152[rbp], rax
	mov	rax, QWORD PTR 40[rbp]
	mov	QWORD PTR -144[rbp], rax
	lea	rdx, -160[rbp]
	lea	r9, -128[rbp]
	lea	r8, -80[rbp]
	lea	rcx, eb_parse_zero_or_more[rip]
	mov	rax, QWORD PTR -8[rbp]
	mov	QWORD PTR 32[rsp], rdx
	mov	rdx, rax
	call	eb_parse_zero_or_more
	mov	QWORD PTR -16[rbp], rax
	mov	rax, QWORD PTR -16[rbp]
	add	rsp, 208
	pop	rbp
	ret
	.seh_endproc
	.globl	eb_parse_word3f
	.def	eb_parse_word3f;	.scl	2;	.type	32;	.endef
	.seh_proc	eb_parse_word3f
eb_parse_word3f:
	push	rbp
	.seh_pushreg	rbp
	mov	rbp, rsp
	.seh_setframe	rbp, 0
	sub	rsp, 64
	.seh_stackalloc	64
	.seh_endprologue
	mov	QWORD PTR 16[rbp], rcx
	mov	QWORD PTR 24[rbp], rdx
	mov	QWORD PTR 32[rbp], r8
	mov	rax, QWORD PTR 16[rbp]
	add	rax, 8
	mov	rax, QWORD PTR [rax]
